
test:     file format elf64-x86-64


Disassembly of section .init:

00000000004007e8 <_init>:
  4007e8:	48 83 ec 08          	sub    $0x8,%rsp
  4007ec:	e8 1b 01 00 00       	callq  40090c <call_gmon_start>
  4007f1:	e8 2a 02 00 00       	callq  400a20 <frame_dummy>
  4007f6:	e8 b5 23 00 00       	callq  402bb0 <__do_global_ctors_aux>
  4007fb:	48 83 c4 08          	add    $0x8,%rsp
  4007ff:	c3                   	retq   

Disassembly of section .plt:

0000000000400800 <_ZSt20__throw_length_errorPKc@plt-0x10>:
  400800:	ff 35 f2 39 20 00    	pushq  0x2039f2(%rip)        # 6041f8 <_GLOBAL_OFFSET_TABLE_+0x8>
  400806:	ff 25 f4 39 20 00    	jmpq   *0x2039f4(%rip)        # 604200 <_GLOBAL_OFFSET_TABLE_+0x10>
  40080c:	0f 1f 40 00          	nopl   0x0(%rax)

0000000000400810 <_ZSt20__throw_length_errorPKc@plt>:
  400810:	ff 25 f2 39 20 00    	jmpq   *0x2039f2(%rip)        # 604208 <_GLOBAL_OFFSET_TABLE_+0x18>
  400816:	68 00 00 00 00       	pushq  $0x0
  40081b:	e9 e0 ff ff ff       	jmpq   400800 <_init+0x18>

0000000000400820 <printf@plt>:
  400820:	ff 25 ea 39 20 00    	jmpq   *0x2039ea(%rip)        # 604210 <_GLOBAL_OFFSET_TABLE_+0x20>
  400826:	68 01 00 00 00       	pushq  $0x1
  40082b:	e9 d0 ff ff ff       	jmpq   400800 <_init+0x18>

0000000000400830 <_ZdlPv@plt>:
  400830:	ff 25 e2 39 20 00    	jmpq   *0x2039e2(%rip)        # 604218 <_GLOBAL_OFFSET_TABLE_+0x28>
  400836:	68 02 00 00 00       	pushq  $0x2
  40083b:	e9 c0 ff ff ff       	jmpq   400800 <_init+0x18>

0000000000400840 <__cxa_rethrow@plt>:
  400840:	ff 25 da 39 20 00    	jmpq   *0x2039da(%rip)        # 604220 <_GLOBAL_OFFSET_TABLE_+0x30>
  400846:	68 03 00 00 00       	pushq  $0x3
  40084b:	e9 b0 ff ff ff       	jmpq   400800 <_init+0x18>

0000000000400850 <__libc_start_main@plt>:
  400850:	ff 25 d2 39 20 00    	jmpq   *0x2039d2(%rip)        # 604228 <_GLOBAL_OFFSET_TABLE_+0x38>
  400856:	68 04 00 00 00       	pushq  $0x4
  40085b:	e9 a0 ff ff ff       	jmpq   400800 <_init+0x18>

0000000000400860 <scanf@plt>:
  400860:	ff 25 ca 39 20 00    	jmpq   *0x2039ca(%rip)        # 604230 <_GLOBAL_OFFSET_TABLE_+0x40>
  400866:	68 05 00 00 00       	pushq  $0x5
  40086b:	e9 90 ff ff ff       	jmpq   400800 <_init+0x18>

0000000000400870 <memmove@plt>:
  400870:	ff 25 c2 39 20 00    	jmpq   *0x2039c2(%rip)        # 604238 <_GLOBAL_OFFSET_TABLE_+0x48>
  400876:	68 06 00 00 00       	pushq  $0x6
  40087b:	e9 80 ff ff ff       	jmpq   400800 <_init+0x18>

0000000000400880 <__cxa_end_catch@plt>:
  400880:	ff 25 ba 39 20 00    	jmpq   *0x2039ba(%rip)        # 604240 <_GLOBAL_OFFSET_TABLE_+0x50>
  400886:	68 07 00 00 00       	pushq  $0x7
  40088b:	e9 70 ff ff ff       	jmpq   400800 <_init+0x18>

0000000000400890 <_ZSt17__throw_bad_allocv@plt>:
  400890:	ff 25 b2 39 20 00    	jmpq   *0x2039b2(%rip)        # 604248 <_GLOBAL_OFFSET_TABLE_+0x58>
  400896:	68 08 00 00 00       	pushq  $0x8
  40089b:	e9 60 ff ff ff       	jmpq   400800 <_init+0x18>

00000000004008a0 <__cxa_begin_catch@plt>:
  4008a0:	ff 25 aa 39 20 00    	jmpq   *0x2039aa(%rip)        # 604250 <_GLOBAL_OFFSET_TABLE_+0x60>
  4008a6:	68 09 00 00 00       	pushq  $0x9
  4008ab:	e9 50 ff ff ff       	jmpq   400800 <_init+0x18>

00000000004008b0 <__gxx_personality_v0@plt>:
  4008b0:	ff 25 a2 39 20 00    	jmpq   *0x2039a2(%rip)        # 604258 <_GLOBAL_OFFSET_TABLE_+0x68>
  4008b6:	68 0a 00 00 00       	pushq  $0xa
  4008bb:	e9 40 ff ff ff       	jmpq   400800 <_init+0x18>

00000000004008c0 <_Znwm@plt>:
  4008c0:	ff 25 9a 39 20 00    	jmpq   *0x20399a(%rip)        # 604260 <_GLOBAL_OFFSET_TABLE_+0x70>
  4008c6:	68 0b 00 00 00       	pushq  $0xb
  4008cb:	e9 30 ff ff ff       	jmpq   400800 <_init+0x18>

00000000004008d0 <_Unwind_Resume@plt>:
  4008d0:	ff 25 92 39 20 00    	jmpq   *0x203992(%rip)        # 604268 <_GLOBAL_OFFSET_TABLE_+0x78>
  4008d6:	68 0c 00 00 00       	pushq  $0xc
  4008db:	e9 20 ff ff ff       	jmpq   400800 <_init+0x18>

Disassembly of section .text:

00000000004008e0 <_start>:
  4008e0:	31 ed                	xor    %ebp,%ebp
  4008e2:	49 89 d1             	mov    %rdx,%r9
  4008e5:	5e                   	pop    %rsi
  4008e6:	48 89 e2             	mov    %rsp,%rdx
  4008e9:	48 83 e4 f0          	and    $0xfffffffffffffff0,%rsp
  4008ed:	50                   	push   %rax
  4008ee:	54                   	push   %rsp
  4008ef:	49 c7 c0 10 2b 40 00 	mov    $0x402b10,%r8
  4008f6:	48 c7 c1 20 2b 40 00 	mov    $0x402b20,%rcx
  4008fd:	48 c7 c7 48 0a 40 00 	mov    $0x400a48,%rdi
  400904:	e8 47 ff ff ff       	callq  400850 <__libc_start_main@plt>
  400909:	f4                   	hlt    
  40090a:	90                   	nop
  40090b:	90                   	nop

000000000040090c <call_gmon_start>:
  40090c:	48 83 ec 08          	sub    $0x8,%rsp
  400910:	48 8b 05 d1 38 20 00 	mov    0x2038d1(%rip),%rax        # 6041e8 <_DYNAMIC+0x1c0>
  400917:	48 85 c0             	test   %rax,%rax
  40091a:	74 02                	je     40091e <call_gmon_start+0x12>
  40091c:	ff d0                	callq  *%rax
  40091e:	48 83 c4 08          	add    $0x8,%rsp
  400922:	c3                   	retq   
  400923:	90                   	nop
  400924:	90                   	nop
  400925:	90                   	nop
  400926:	90                   	nop
  400927:	90                   	nop
  400928:	90                   	nop
  400929:	90                   	nop
  40092a:	90                   	nop
  40092b:	90                   	nop
  40092c:	90                   	nop
  40092d:	90                   	nop
  40092e:	90                   	nop
  40092f:	90                   	nop

0000000000400930 <deregister_tm_clones>:
  400930:	b8 87 42 60 00       	mov    $0x604287,%eax
  400935:	55                   	push   %rbp
  400936:	48 2d 80 42 60 00    	sub    $0x604280,%rax
  40093c:	48 83 f8 0e          	cmp    $0xe,%rax
  400940:	48 89 e5             	mov    %rsp,%rbp
  400943:	76 1b                	jbe    400960 <deregister_tm_clones+0x30>
  400945:	b8 00 00 00 00       	mov    $0x0,%eax
  40094a:	48 85 c0             	test   %rax,%rax
  40094d:	74 11                	je     400960 <deregister_tm_clones+0x30>
  40094f:	5d                   	pop    %rbp
  400950:	bf 80 42 60 00       	mov    $0x604280,%edi
  400955:	ff e0                	jmpq   *%rax
  400957:	66 0f 1f 84 00 00 00 	nopw   0x0(%rax,%rax,1)
  40095e:	00 00 
  400960:	5d                   	pop    %rbp
  400961:	c3                   	retq   
  400962:	66 66 66 66 66 2e 0f 	data32 data32 data32 data32 nopw %cs:0x0(%rax,%rax,1)
  400969:	1f 84 00 00 00 00 00 

0000000000400970 <register_tm_clones>:
  400970:	be 80 42 60 00       	mov    $0x604280,%esi
  400975:	55                   	push   %rbp
  400976:	48 81 ee 80 42 60 00 	sub    $0x604280,%rsi
  40097d:	48 c1 fe 03          	sar    $0x3,%rsi
  400981:	48 89 e5             	mov    %rsp,%rbp
  400984:	48 89 f0             	mov    %rsi,%rax
  400987:	48 c1 e8 3f          	shr    $0x3f,%rax
  40098b:	48 01 c6             	add    %rax,%rsi
  40098e:	48 d1 fe             	sar    %rsi
  400991:	74 15                	je     4009a8 <register_tm_clones+0x38>
  400993:	b8 00 00 00 00       	mov    $0x0,%eax
  400998:	48 85 c0             	test   %rax,%rax
  40099b:	74 0b                	je     4009a8 <register_tm_clones+0x38>
  40099d:	5d                   	pop    %rbp
  40099e:	bf 80 42 60 00       	mov    $0x604280,%edi
  4009a3:	ff e0                	jmpq   *%rax
  4009a5:	0f 1f 00             	nopl   (%rax)
  4009a8:	5d                   	pop    %rbp
  4009a9:	c3                   	retq   
  4009aa:	66 0f 1f 44 00 00    	nopw   0x0(%rax,%rax,1)

00000000004009b0 <__do_global_dtors_aux>:
  4009b0:	80 3d c9 38 20 00 00 	cmpb   $0x0,0x2038c9(%rip)        # 604280 <__bss_start>
  4009b7:	75 5f                	jne    400a18 <__do_global_dtors_aux+0x68>
  4009b9:	55                   	push   %rbp
  4009ba:	48 89 e5             	mov    %rsp,%rbp
  4009bd:	53                   	push   %rbx
  4009be:	bb 18 40 60 00       	mov    $0x604018,%ebx
  4009c3:	48 81 eb 10 40 60 00 	sub    $0x604010,%rbx
  4009ca:	48 83 ec 08          	sub    $0x8,%rsp
  4009ce:	48 8b 05 b3 38 20 00 	mov    0x2038b3(%rip),%rax        # 604288 <dtor_idx.6564>
  4009d5:	48 c1 fb 03          	sar    $0x3,%rbx
  4009d9:	48 83 eb 01          	sub    $0x1,%rbx
  4009dd:	48 39 d8             	cmp    %rbx,%rax
  4009e0:	73 24                	jae    400a06 <__do_global_dtors_aux+0x56>
  4009e2:	66 0f 1f 44 00 00    	nopw   0x0(%rax,%rax,1)
  4009e8:	48 83 c0 01          	add    $0x1,%rax
  4009ec:	48 89 05 95 38 20 00 	mov    %rax,0x203895(%rip)        # 604288 <dtor_idx.6564>
  4009f3:	ff 14 c5 10 40 60 00 	callq  *0x604010(,%rax,8)
  4009fa:	48 8b 05 87 38 20 00 	mov    0x203887(%rip),%rax        # 604288 <dtor_idx.6564>
  400a01:	48 39 d8             	cmp    %rbx,%rax
  400a04:	72 e2                	jb     4009e8 <__do_global_dtors_aux+0x38>
  400a06:	e8 25 ff ff ff       	callq  400930 <deregister_tm_clones>
  400a0b:	c6 05 6e 38 20 00 01 	movb   $0x1,0x20386e(%rip)        # 604280 <__bss_start>
  400a12:	48 83 c4 08          	add    $0x8,%rsp
  400a16:	5b                   	pop    %rbx
  400a17:	5d                   	pop    %rbp
  400a18:	f3 c3                	repz retq 
  400a1a:	66 0f 1f 44 00 00    	nopw   0x0(%rax,%rax,1)

0000000000400a20 <frame_dummy>:
  400a20:	bf 20 40 60 00       	mov    $0x604020,%edi
  400a25:	48 83 3f 00          	cmpq   $0x0,(%rdi)
  400a29:	75 05                	jne    400a30 <frame_dummy+0x10>
  400a2b:	e9 40 ff ff ff       	jmpq   400970 <register_tm_clones>
  400a30:	b8 00 00 00 00       	mov    $0x0,%eax
  400a35:	48 85 c0             	test   %rax,%rax
  400a38:	74 f1                	je     400a2b <frame_dummy+0xb>
  400a3a:	55                   	push   %rbp
  400a3b:	48 89 e5             	mov    %rsp,%rbp
  400a3e:	ff d0                	callq  *%rax
  400a40:	5d                   	pop    %rbp
  400a41:	e9 2a ff ff ff       	jmpq   400970 <register_tm_clones>
  400a46:	90                   	nop
  400a47:	90                   	nop

0000000000400a48 <main>:
  400a48:	55                   	push   %rbp
  400a49:	48 89 e5             	mov    %rsp,%rbp
  400a4c:	41 54                	push   %r12
  400a4e:	53                   	push   %rbx
  400a4f:	48 81 ec f0 01 00 00 	sub    $0x1f0,%rsp
  400a56:	8b 05 c0 21 00 00    	mov    0x21c0(%rip),%eax        # 402c1c <_IO_stdin_used+0x24>
  400a5c:	89 45 ec             	mov    %eax,-0x14(%rbp)
  400a5f:	48 8d 45 a0          	lea    -0x60(%rbp),%rax
  400a63:	48 89 c7             	mov    %rax,%rdi
  400a66:	e8 45 02 00 00       	callq  400cb0 <_ZNSt6vectorIiSaIiEEC1Ev>
  400a6b:	48 8d 45 b8          	lea    -0x48(%rbp),%rax
  400a6f:	48 89 c6             	mov    %rax,%rsi
  400a72:	bf fc 2b 40 00       	mov    $0x402bfc,%edi
  400a77:	b8 00 00 00 00       	mov    $0x0,%eax
  400a7c:	e8 df fd ff ff       	callq  400860 <scanf@plt>
  400a81:	c7 45 e8 00 00 00 00 	movl   $0x0,-0x18(%rbp)
  400a88:	eb 53                	jmp    400add <main+0x95>
  400a8a:	8b 45 e8             	mov    -0x18(%rbp),%eax
  400a8d:	48 98                	cltq   
  400a8f:	48 8d 14 85 00 00 00 	lea    0x0(,%rax,4),%rdx
  400a96:	00 
  400a97:	48 8d 85 00 fe ff ff 	lea    -0x200(%rbp),%rax
  400a9e:	48 01 d0             	add    %rdx,%rax
  400aa1:	48 89 c6             	mov    %rax,%rsi
  400aa4:	bf fc 2b 40 00       	mov    $0x402bfc,%edi
  400aa9:	b8 00 00 00 00       	mov    $0x0,%eax
  400aae:	e8 ad fd ff ff       	callq  400860 <scanf@plt>
  400ab3:	8b 45 e8             	mov    -0x18(%rbp),%eax
  400ab6:	48 98                	cltq   
  400ab8:	48 8d 14 85 00 00 00 	lea    0x0(,%rax,4),%rdx
  400abf:	00 
  400ac0:	48 8d 85 00 fe ff ff 	lea    -0x200(%rbp),%rax
  400ac7:	48 01 c2             	add    %rax,%rdx
  400aca:	48 8d 45 a0          	lea    -0x60(%rbp),%rax
  400ace:	48 89 d6             	mov    %rdx,%rsi
  400ad1:	48 89 c7             	mov    %rax,%rdi
  400ad4:	e8 57 02 00 00       	callq  400d30 <_ZNSt6vectorIiSaIiEE9push_backERKi>
  400ad9:	83 45 e8 01          	addl   $0x1,-0x18(%rbp)
  400add:	8b 45 b8             	mov    -0x48(%rbp),%eax
  400ae0:	39 45 e8             	cmp    %eax,-0x18(%rbp)
  400ae3:	7c a5                	jl     400a8a <main+0x42>
  400ae5:	48 8d 45 a0          	lea    -0x60(%rbp),%rax
  400ae9:	48 89 c7             	mov    %rax,%rdi
  400aec:	e8 df 02 00 00       	callq  400dd0 <_ZNSt6vectorIiSaIiEE3endEv>
  400af1:	48 89 c3             	mov    %rax,%rbx
  400af4:	48 8d 45 a0          	lea    -0x60(%rbp),%rax
  400af8:	48 89 c7             	mov    %rax,%rdi
  400afb:	e8 aa 02 00 00       	callq  400daa <_ZNSt6vectorIiSaIiEE5beginEv>
  400b00:	48 83 ec 08          	sub    $0x8,%rsp
  400b04:	41 54                	push   %r12
  400b06:	48 89 de             	mov    %rbx,%rsi
  400b09:	48 89 c7             	mov    %rax,%rdi
  400b0c:	e8 e8 02 00 00       	callq  400df9 <_ZSt4sortIN9__gnu_cxx17__normal_iteratorIPiSt6vectorIiSaIiEEEESt7greaterIiEEvT_S9_T0_>
  400b11:	48 83 c4 10          	add    $0x10,%rsp
  400b15:	48 8d 45 a0          	lea    -0x60(%rbp),%rax
  400b19:	48 89 c7             	mov    %rax,%rdi
  400b1c:	e8 19 03 00 00       	callq  400e3a <_ZNSt6vectorIiSaIiEE5frontEv>
  400b21:	8b 00                	mov    (%rax),%eax
  400b23:	89 45 e4             	mov    %eax,-0x1c(%rbp)
  400b26:	48 8d 45 a0          	lea    -0x60(%rbp),%rax
  400b2a:	48 89 c7             	mov    %rax,%rdi
  400b2d:	e8 78 02 00 00       	callq  400daa <_ZNSt6vectorIiSaIiEE5beginEv>
  400b32:	48 89 45 90          	mov    %rax,-0x70(%rbp)
  400b36:	48 8d 45 90          	lea    -0x70(%rbp),%rax
  400b3a:	be 00 00 00 00       	mov    $0x0,%esi
  400b3f:	48 89 c7             	mov    %rax,%rdi
  400b42:	e8 1d 03 00 00       	callq  400e64 <_ZN9__gnu_cxx17__normal_iteratorIPiSt6vectorIiSaIiEEEppEi>
  400b47:	eb 34                	jmp    400b7d <main+0x135>
  400b49:	48 8d 45 90          	lea    -0x70(%rbp),%rax
  400b4d:	48 89 c7             	mov    %rax,%rdi
  400b50:	e8 89 03 00 00       	callq  400ede <_ZNK9__gnu_cxx17__normal_iteratorIPiSt6vectorIiSaIiEEEdeEv>
  400b55:	48 89 c3             	mov    %rax,%rbx
  400b58:	48 8d 45 90          	lea    -0x70(%rbp),%rax
  400b5c:	48 89 c7             	mov    %rax,%rdi
  400b5f:	e8 7a 03 00 00       	callq  400ede <_ZNK9__gnu_cxx17__normal_iteratorIPiSt6vectorIiSaIiEEEdeEv>
  400b64:	8b 00                	mov    (%rax),%eax
  400b66:	99                   	cltd   
  400b67:	f7 7d e4             	idivl  -0x1c(%rbp)
  400b6a:	89 03                	mov    %eax,(%rbx)
  400b6c:	48 8d 45 90          	lea    -0x70(%rbp),%rax
  400b70:	be 00 00 00 00       	mov    $0x0,%esi
  400b75:	48 89 c7             	mov    %rax,%rdi
  400b78:	e8 e7 02 00 00       	callq  400e64 <_ZN9__gnu_cxx17__normal_iteratorIPiSt6vectorIiSaIiEEEppEi>
  400b7d:	48 8d 45 a0          	lea    -0x60(%rbp),%rax
  400b81:	48 89 c7             	mov    %rax,%rdi
  400b84:	e8 47 02 00 00       	callq  400dd0 <_ZNSt6vectorIiSaIiEE3endEv>
  400b89:	48 89 45 c0          	mov    %rax,-0x40(%rbp)
  400b8d:	48 8d 55 c0          	lea    -0x40(%rbp),%rdx
  400b91:	48 8d 45 90          	lea    -0x70(%rbp),%rax
  400b95:	48 89 d6             	mov    %rdx,%rsi
  400b98:	48 89 c7             	mov    %rax,%rdi
  400b9b:	e8 02 03 00 00       	callq  400ea2 <_ZN9__gnu_cxxneIPiSt6vectorIiSaIiEEEEbRKNS_17__normal_iteratorIT_T0_EESA_>
  400ba0:	84 c0                	test   %al,%al
  400ba2:	75 a5                	jne    400b49 <main+0x101>
  400ba4:	48 8d 45 a0          	lea    -0x60(%rbp),%rax
  400ba8:	48 89 c7             	mov    %rax,%rdi
  400bab:	e8 fa 01 00 00       	callq  400daa <_ZNSt6vectorIiSaIiEE5beginEv>
  400bb0:	48 89 45 90          	mov    %rax,-0x70(%rbp)
  400bb4:	eb 37                	jmp    400bed <main+0x1a5>
  400bb6:	48 8d 45 90          	lea    -0x70(%rbp),%rax
  400bba:	48 89 c7             	mov    %rax,%rdi
  400bbd:	e8 1c 03 00 00       	callq  400ede <_ZNK9__gnu_cxx17__normal_iteratorIPiSt6vectorIiSaIiEEEdeEv>
  400bc2:	8b 00                	mov    (%rax),%eax
  400bc4:	66 0f ef c0          	pxor   %xmm0,%xmm0
  400bc8:	f3 0f 2a c0          	cvtsi2ss %eax,%xmm0
  400bcc:	f3 0f 10 4d ec       	movss  -0x14(%rbp),%xmm1
  400bd1:	f3 0f 58 c8          	addss  %xmm0,%xmm1
  400bd5:	66 0f 7e c8          	movd   %xmm1,%eax
  400bd9:	89 45 ec             	mov    %eax,-0x14(%rbp)
  400bdc:	48 8d 45 90          	lea    -0x70(%rbp),%rax
  400be0:	be 00 00 00 00       	mov    $0x0,%esi
  400be5:	48 89 c7             	mov    %rax,%rdi
  400be8:	e8 77 02 00 00       	callq  400e64 <_ZN9__gnu_cxx17__normal_iteratorIPiSt6vectorIiSaIiEEEppEi>
  400bed:	48 8d 45 a0          	lea    -0x60(%rbp),%rax
  400bf1:	48 89 c7             	mov    %rax,%rdi
  400bf4:	e8 d7 01 00 00       	callq  400dd0 <_ZNSt6vectorIiSaIiEE3endEv>
  400bf9:	48 89 45 d0          	mov    %rax,-0x30(%rbp)
  400bfd:	48 8d 55 d0          	lea    -0x30(%rbp),%rdx
  400c01:	48 8d 45 90          	lea    -0x70(%rbp),%rax
  400c05:	48 89 d6             	mov    %rdx,%rsi
  400c08:	48 89 c7             	mov    %rax,%rdi
  400c0b:	e8 92 02 00 00       	callq  400ea2 <_ZN9__gnu_cxxneIPiSt6vectorIiSaIiEEEEbRKNS_17__normal_iteratorIT_T0_EESA_>
  400c10:	84 c0                	test   %al,%al
  400c12:	75 a2                	jne    400bb6 <main+0x16e>
  400c14:	8b 45 b8             	mov    -0x48(%rbp),%eax
  400c17:	66 0f ef c0          	pxor   %xmm0,%xmm0
  400c1b:	f3 0f 2a c0          	cvtsi2ss %eax,%xmm0
  400c1f:	f3 0f 10 4d ec       	movss  -0x14(%rbp),%xmm1
  400c24:	f3 0f 5e c8          	divss  %xmm0,%xmm1
  400c28:	0f 28 c1             	movaps %xmm1,%xmm0
  400c2b:	f3 0f 5a c0          	cvtss2sd %xmm0,%xmm0
  400c2f:	bf ff 2b 40 00       	mov    $0x402bff,%edi
  400c34:	b8 01 00 00 00       	mov    $0x1,%eax
  400c39:	e8 e2 fb ff ff       	callq  400820 <printf@plt>
  400c3e:	bb 00 00 00 00       	mov    $0x0,%ebx
  400c43:	48 8d 45 a0          	lea    -0x60(%rbp),%rax
  400c47:	48 89 c7             	mov    %rax,%rdi
  400c4a:	e8 7b 00 00 00       	callq  400cca <_ZNSt6vectorIiSaIiEED1Ev>
  400c4f:	89 d8                	mov    %ebx,%eax
  400c51:	eb 1a                	jmp    400c6d <main+0x225>
  400c53:	48 89 c3             	mov    %rax,%rbx
  400c56:	48 8d 45 a0          	lea    -0x60(%rbp),%rax
  400c5a:	48 89 c7             	mov    %rax,%rdi
  400c5d:	e8 68 00 00 00       	callq  400cca <_ZNSt6vectorIiSaIiEED1Ev>
  400c62:	48 89 d8             	mov    %rbx,%rax
  400c65:	48 89 c7             	mov    %rax,%rdi
  400c68:	e8 63 fc ff ff       	callq  4008d0 <_Unwind_Resume@plt>
  400c6d:	48 8d 65 f0          	lea    -0x10(%rbp),%rsp
  400c71:	5b                   	pop    %rbx
  400c72:	41 5c                	pop    %r12
  400c74:	5d                   	pop    %rbp
  400c75:	c3                   	retq   

0000000000400c76 <_ZSt4__lgl>:
  400c76:	55                   	push   %rbp
  400c77:	48 89 e5             	mov    %rsp,%rbp
  400c7a:	48 89 7d f8          	mov    %rdi,-0x8(%rbp)
  400c7e:	ba 40 00 00 00       	mov    $0x40,%edx
  400c83:	48 8b 45 f8          	mov    -0x8(%rbp),%rax
  400c87:	48 0f bd c0          	bsr    %rax,%rax
  400c8b:	48 83 f0 3f          	xor    $0x3f,%rax
  400c8f:	48 98                	cltq   
  400c91:	48 29 c2             	sub    %rax,%rdx
  400c94:	48 89 d0             	mov    %rdx,%rax
  400c97:	48 83 e8 01          	sub    $0x1,%rax
  400c9b:	5d                   	pop    %rbp
  400c9c:	c3                   	retq   

0000000000400c9d <_ZnwmPv>:
  400c9d:	55                   	push   %rbp
  400c9e:	48 89 e5             	mov    %rsp,%rbp
  400ca1:	48 89 7d f8          	mov    %rdi,-0x8(%rbp)
  400ca5:	48 89 75 f0          	mov    %rsi,-0x10(%rbp)
  400ca9:	48 8b 45 f0          	mov    -0x10(%rbp),%rax
  400cad:	5d                   	pop    %rbp
  400cae:	c3                   	retq   
  400caf:	90                   	nop

0000000000400cb0 <_ZNSt6vectorIiSaIiEEC1Ev>:
  400cb0:	55                   	push   %rbp
  400cb1:	48 89 e5             	mov    %rsp,%rbp
  400cb4:	48 83 ec 10          	sub    $0x10,%rsp
  400cb8:	48 89 7d f8          	mov    %rdi,-0x8(%rbp)
  400cbc:	48 8b 45 f8          	mov    -0x8(%rbp),%rax
  400cc0:	48 89 c7             	mov    %rax,%rdi
  400cc3:	e8 42 02 00 00       	callq  400f0a <_ZNSt12_Vector_baseIiSaIiEEC1Ev>
  400cc8:	c9                   	leaveq 
  400cc9:	c3                   	retq   

0000000000400cca <_ZNSt6vectorIiSaIiEED1Ev>:
  400cca:	55                   	push   %rbp
  400ccb:	48 89 e5             	mov    %rsp,%rbp
  400cce:	53                   	push   %rbx
  400ccf:	48 83 ec 18          	sub    $0x18,%rsp
  400cd3:	48 89 7d e8          	mov    %rdi,-0x18(%rbp)
  400cd7:	48 8b 45 e8          	mov    -0x18(%rbp),%rax
  400cdb:	48 89 c7             	mov    %rax,%rdi
  400cde:	e8 b3 02 00 00       	callq  400f96 <_ZNSt12_Vector_baseIiSaIiEE19_M_get_Tp_allocatorEv>
  400ce3:	48 89 c2             	mov    %rax,%rdx
  400ce6:	48 8b 45 e8          	mov    -0x18(%rbp),%rax
  400cea:	48 8b 48 08          	mov    0x8(%rax),%rcx
  400cee:	48 8b 45 e8          	mov    -0x18(%rbp),%rax
  400cf2:	48 8b 00             	mov    (%rax),%rax
  400cf5:	48 89 ce             	mov    %rcx,%rsi
  400cf8:	48 89 c7             	mov    %rax,%rdi
  400cfb:	e8 a4 02 00 00       	callq  400fa4 <_ZSt8_DestroyIPiiEvT_S1_RSaIT0_E>
  400d00:	48 8b 45 e8          	mov    -0x18(%rbp),%rax
  400d04:	48 89 c7             	mov    %rax,%rdi
  400d07:	e8 18 02 00 00       	callq  400f24 <_ZNSt12_Vector_baseIiSaIiEED1Ev>
  400d0c:	eb 1a                	jmp    400d28 <_ZNSt6vectorIiSaIiEED1Ev+0x5e>
  400d0e:	48 89 c3             	mov    %rax,%rbx
  400d11:	48 8b 45 e8          	mov    -0x18(%rbp),%rax
  400d15:	48 89 c7             	mov    %rax,%rdi
  400d18:	e8 07 02 00 00       	callq  400f24 <_ZNSt12_Vector_baseIiSaIiEED1Ev>
  400d1d:	48 89 d8             	mov    %rbx,%rax
  400d20:	48 89 c7             	mov    %rax,%rdi
  400d23:	e8 a8 fb ff ff       	callq  4008d0 <_Unwind_Resume@plt>
  400d28:	48 83 c4 18          	add    $0x18,%rsp
  400d2c:	5b                   	pop    %rbx
  400d2d:	5d                   	pop    %rbp
  400d2e:	c3                   	retq   
  400d2f:	90                   	nop

0000000000400d30 <_ZNSt6vectorIiSaIiEE9push_backERKi>:
  400d30:	55                   	push   %rbp
  400d31:	48 89 e5             	mov    %rsp,%rbp
  400d34:	48 83 ec 10          	sub    $0x10,%rsp
  400d38:	48 89 7d f8          	mov    %rdi,-0x8(%rbp)
  400d3c:	48 89 75 f0          	mov    %rsi,-0x10(%rbp)
  400d40:	48 8b 45 f8          	mov    -0x8(%rbp),%rax
  400d44:	48 8b 50 08          	mov    0x8(%rax),%rdx
  400d48:	48 8b 45 f8          	mov    -0x8(%rbp),%rax
  400d4c:	48 8b 40 10          	mov    0x10(%rax),%rax
  400d50:	48 39 c2             	cmp    %rax,%rdx
  400d53:	74 31                	je     400d86 <_ZNSt6vectorIiSaIiEE9push_backERKi+0x56>
  400d55:	48 8b 45 f8          	mov    -0x8(%rbp),%rax
  400d59:	48 8b 48 08          	mov    0x8(%rax),%rcx
  400d5d:	48 8b 45 f8          	mov    -0x8(%rbp),%rax
  400d61:	48 8b 55 f0          	mov    -0x10(%rbp),%rdx
  400d65:	48 89 ce             	mov    %rcx,%rsi
  400d68:	48 89 c7             	mov    %rax,%rdi
  400d6b:	e8 5d 02 00 00       	callq  400fcd <_ZN9__gnu_cxx14__alloc_traitsISaIiEE9constructIiEEvRS1_PiRKT_>
  400d70:	48 8b 45 f8          	mov    -0x8(%rbp),%rax
  400d74:	48 8b 40 08          	mov    0x8(%rax),%rax
  400d78:	48 8d 50 04          	lea    0x4(%rax),%rdx
  400d7c:	48 8b 45 f8          	mov    -0x8(%rbp),%rax
  400d80:	48 89 50 08          	mov    %rdx,0x8(%rax)
  400d84:	eb 22                	jmp    400da8 <_ZNSt6vectorIiSaIiEE9push_backERKi+0x78>
  400d86:	48 8b 45 f8          	mov    -0x8(%rbp),%rax
  400d8a:	48 89 c7             	mov    %rax,%rdi
  400d8d:	e8 3e 00 00 00       	callq  400dd0 <_ZNSt6vectorIiSaIiEE3endEv>
  400d92:	48 89 c1             	mov    %rax,%rcx
  400d95:	48 8b 55 f0          	mov    -0x10(%rbp),%rdx
  400d99:	48 8b 45 f8          	mov    -0x8(%rbp),%rax
  400d9d:	48 89 ce             	mov    %rcx,%rsi
  400da0:	48 89 c7             	mov    %rax,%rdi
  400da3:	e8 52 02 00 00       	callq  400ffa <_ZNSt6vectorIiSaIiEE13_M_insert_auxEN9__gnu_cxx17__normal_iteratorIPiS1_EERKi>
  400da8:	c9                   	leaveq 
  400da9:	c3                   	retq   

0000000000400daa <_ZNSt6vectorIiSaIiEE5beginEv>:
  400daa:	55                   	push   %rbp
  400dab:	48 89 e5             	mov    %rsp,%rbp
  400dae:	48 83 ec 20          	sub    $0x20,%rsp
  400db2:	48 89 7d e8          	mov    %rdi,-0x18(%rbp)
  400db6:	48 8b 55 e8          	mov    -0x18(%rbp),%rdx
  400dba:	48 8d 45 f0          	lea    -0x10(%rbp),%rax
  400dbe:	48 89 d6             	mov    %rdx,%rsi
  400dc1:	48 89 c7             	mov    %rax,%rdi
  400dc4:	e8 19 05 00 00       	callq  4012e2 <_ZN9__gnu_cxx17__normal_iteratorIPiSt6vectorIiSaIiEEEC1ERKS1_>
  400dc9:	48 8b 45 f0          	mov    -0x10(%rbp),%rax
  400dcd:	c9                   	leaveq 
  400dce:	c3                   	retq   
  400dcf:	90                   	nop

0000000000400dd0 <_ZNSt6vectorIiSaIiEE3endEv>:
  400dd0:	55                   	push   %rbp
  400dd1:	48 89 e5             	mov    %rsp,%rbp
  400dd4:	48 83 ec 20          	sub    $0x20,%rsp
  400dd8:	48 89 7d e8          	mov    %rdi,-0x18(%rbp)
  400ddc:	48 8b 45 e8          	mov    -0x18(%rbp),%rax
  400de0:	48 8d 50 08          	lea    0x8(%rax),%rdx
  400de4:	48 8d 45 f0          	lea    -0x10(%rbp),%rax
  400de8:	48 89 d6             	mov    %rdx,%rsi
  400deb:	48 89 c7             	mov    %rax,%rdi
  400dee:	e8 ef 04 00 00       	callq  4012e2 <_ZN9__gnu_cxx17__normal_iteratorIPiSt6vectorIiSaIiEEEC1ERKS1_>
  400df3:	48 8b 45 f0          	mov    -0x10(%rbp),%rax
  400df7:	c9                   	leaveq 
  400df8:	c3                   	retq   

0000000000400df9 <_ZSt4sortIN9__gnu_cxx17__normal_iteratorIPiSt6vectorIiSaIiEEEESt7greaterIiEEvT_S9_T0_>:
  400df9:	55                   	push   %rbp
  400dfa:	48 89 e5             	mov    %rsp,%rbp
  400dfd:	53                   	push   %rbx
  400dfe:	48 83 ec 28          	sub    $0x28,%rsp
  400e02:	48 89 7d e0          	mov    %rdi,-0x20(%rbp)
  400e06:	48 89 75 d0          	mov    %rsi,-0x30(%rbp)
  400e0a:	48 83 ec 08          	sub    $0x8,%rsp
  400e0e:	50                   	push   %rax
  400e0f:	e8 ea 04 00 00       	callq  4012fe <_ZN9__gnu_cxx5__ops16__iter_comp_iterISt7greaterIiEEENS0_15_Iter_comp_iterIT_EES5_>
  400e14:	48 83 c4 10          	add    $0x10,%rsp
  400e18:	48 83 ec 08          	sub    $0x8,%rsp
  400e1c:	48 8b 55 d0          	mov    -0x30(%rbp),%rdx
  400e20:	48 8b 45 e0          	mov    -0x20(%rbp),%rax
  400e24:	53                   	push   %rbx
  400e25:	48 89 d6             	mov    %rdx,%rsi
  400e28:	48 89 c7             	mov    %rax,%rdi
  400e2b:	e8 f4 04 00 00       	callq  401324 <_ZSt6__sortIN9__gnu_cxx17__normal_iteratorIPiSt6vectorIiSaIiEEEENS0_5__ops15_Iter_comp_iterISt7greaterIiEEEEvT_SC_T0_>
  400e30:	48 83 c4 10          	add    $0x10,%rsp
  400e34:	48 8b 5d f8          	mov    -0x8(%rbp),%rbx
  400e38:	c9                   	leaveq 
  400e39:	c3                   	retq   

0000000000400e3a <_ZNSt6vectorIiSaIiEE5frontEv>:
  400e3a:	55                   	push   %rbp
  400e3b:	48 89 e5             	mov    %rsp,%rbp
  400e3e:	48 83 ec 20          	sub    $0x20,%rsp
  400e42:	48 89 7d e8          	mov    %rdi,-0x18(%rbp)
  400e46:	48 8b 45 e8          	mov    -0x18(%rbp),%rax
  400e4a:	48 89 c7             	mov    %rax,%rdi
  400e4d:	e8 58 ff ff ff       	callq  400daa <_ZNSt6vectorIiSaIiEE5beginEv>
  400e52:	48 89 45 f0          	mov    %rax,-0x10(%rbp)
  400e56:	48 8d 45 f0          	lea    -0x10(%rbp),%rax
  400e5a:	48 89 c7             	mov    %rax,%rdi
  400e5d:	e8 7c 00 00 00       	callq  400ede <_ZNK9__gnu_cxx17__normal_iteratorIPiSt6vectorIiSaIiEEEdeEv>
  400e62:	c9                   	leaveq 
  400e63:	c3                   	retq   

0000000000400e64 <_ZN9__gnu_cxx17__normal_iteratorIPiSt6vectorIiSaIiEEEppEi>:
  400e64:	55                   	push   %rbp
  400e65:	48 89 e5             	mov    %rsp,%rbp
  400e68:	48 83 ec 20          	sub    $0x20,%rsp
  400e6c:	48 89 7d e8          	mov    %rdi,-0x18(%rbp)
  400e70:	89 75 e4             	mov    %esi,-0x1c(%rbp)
  400e73:	48 8b 45 e8          	mov    -0x18(%rbp),%rax
  400e77:	48 8b 00             	mov    (%rax),%rax
  400e7a:	48 8d 48 04          	lea    0x4(%rax),%rcx
  400e7e:	48 8b 55 e8          	mov    -0x18(%rbp),%rdx
  400e82:	48 89 0a             	mov    %rcx,(%rdx)
  400e85:	48 89 45 f8          	mov    %rax,-0x8(%rbp)
  400e89:	48 8d 55 f8          	lea    -0x8(%rbp),%rdx
  400e8d:	48 8d 45 f0          	lea    -0x10(%rbp),%rax
  400e91:	48 89 d6             	mov    %rdx,%rsi
  400e94:	48 89 c7             	mov    %rax,%rdi
  400e97:	e8 46 04 00 00       	callq  4012e2 <_ZN9__gnu_cxx17__normal_iteratorIPiSt6vectorIiSaIiEEEC1ERKS1_>
  400e9c:	48 8b 45 f0          	mov    -0x10(%rbp),%rax
  400ea0:	c9                   	leaveq 
  400ea1:	c3                   	retq   

0000000000400ea2 <_ZN9__gnu_cxxneIPiSt6vectorIiSaIiEEEEbRKNS_17__normal_iteratorIT_T0_EESA_>:
  400ea2:	55                   	push   %rbp
  400ea3:	48 89 e5             	mov    %rsp,%rbp
  400ea6:	53                   	push   %rbx
  400ea7:	48 83 ec 18          	sub    $0x18,%rsp
  400eab:	48 89 7d e8          	mov    %rdi,-0x18(%rbp)
  400eaf:	48 89 75 e0          	mov    %rsi,-0x20(%rbp)
  400eb3:	48 8b 45 e8          	mov    -0x18(%rbp),%rax
  400eb7:	48 89 c7             	mov    %rax,%rdi
  400eba:	e8 f1 04 00 00       	callq  4013b0 <_ZNK9__gnu_cxx17__normal_iteratorIPiSt6vectorIiSaIiEEE4baseEv>
  400ebf:	48 8b 18             	mov    (%rax),%rbx
  400ec2:	48 8b 45 e0          	mov    -0x20(%rbp),%rax
  400ec6:	48 89 c7             	mov    %rax,%rdi
  400ec9:	e8 e2 04 00 00       	callq  4013b0 <_ZNK9__gnu_cxx17__normal_iteratorIPiSt6vectorIiSaIiEEE4baseEv>
  400ece:	48 8b 00             	mov    (%rax),%rax
  400ed1:	48 39 c3             	cmp    %rax,%rbx
  400ed4:	0f 95 c0             	setne  %al
  400ed7:	48 83 c4 18          	add    $0x18,%rsp
  400edb:	5b                   	pop    %rbx
  400edc:	5d                   	pop    %rbp
  400edd:	c3                   	retq   

0000000000400ede <_ZNK9__gnu_cxx17__normal_iteratorIPiSt6vectorIiSaIiEEEdeEv>:
  400ede:	55                   	push   %rbp
  400edf:	48 89 e5             	mov    %rsp,%rbp
  400ee2:	48 89 7d f8          	mov    %rdi,-0x8(%rbp)
  400ee6:	48 8b 45 f8          	mov    -0x8(%rbp),%rax
  400eea:	48 8b 00             	mov    (%rax),%rax
  400eed:	5d                   	pop    %rbp
  400eee:	c3                   	retq   
  400eef:	90                   	nop

0000000000400ef0 <_ZNSt12_Vector_baseIiSaIiEE12_Vector_implD1Ev>:
  400ef0:	55                   	push   %rbp
  400ef1:	48 89 e5             	mov    %rsp,%rbp
  400ef4:	48 83 ec 10          	sub    $0x10,%rsp
  400ef8:	48 89 7d f8          	mov    %rdi,-0x8(%rbp)
  400efc:	48 8b 45 f8          	mov    -0x8(%rbp),%rax
  400f00:	48 89 c7             	mov    %rax,%rdi
  400f03:	e8 f4 04 00 00       	callq  4013fc <_ZNSaIiED1Ev>
  400f08:	c9                   	leaveq 
  400f09:	c3                   	retq   

0000000000400f0a <_ZNSt12_Vector_baseIiSaIiEEC1Ev>:
  400f0a:	55                   	push   %rbp
  400f0b:	48 89 e5             	mov    %rsp,%rbp
  400f0e:	48 83 ec 10          	sub    $0x10,%rsp
  400f12:	48 89 7d f8          	mov    %rdi,-0x8(%rbp)
  400f16:	48 8b 45 f8          	mov    -0x8(%rbp),%rax
  400f1a:	48 89 c7             	mov    %rax,%rdi
  400f1d:	e8 9c 04 00 00       	callq  4013be <_ZNSt12_Vector_baseIiSaIiEE12_Vector_implC1Ev>
  400f22:	c9                   	leaveq 
  400f23:	c3                   	retq   

0000000000400f24 <_ZNSt12_Vector_baseIiSaIiEED1Ev>:
  400f24:	55                   	push   %rbp
  400f25:	48 89 e5             	mov    %rsp,%rbp
  400f28:	53                   	push   %rbx
  400f29:	48 83 ec 18          	sub    $0x18,%rsp
  400f2d:	48 89 7d e8          	mov    %rdi,-0x18(%rbp)
  400f31:	48 8b 45 e8          	mov    -0x18(%rbp),%rax
  400f35:	48 8b 40 10          	mov    0x10(%rax),%rax
  400f39:	48 89 c2             	mov    %rax,%rdx
  400f3c:	48 8b 45 e8          	mov    -0x18(%rbp),%rax
  400f40:	48 8b 00             	mov    (%rax),%rax
  400f43:	48 29 c2             	sub    %rax,%rdx
  400f46:	48 89 d0             	mov    %rdx,%rax
  400f49:	48 c1 f8 02          	sar    $0x2,%rax
  400f4d:	48 89 c2             	mov    %rax,%rdx
  400f50:	48 8b 45 e8          	mov    -0x18(%rbp),%rax
  400f54:	48 8b 08             	mov    (%rax),%rcx
  400f57:	48 8b 45 e8          	mov    -0x18(%rbp),%rax
  400f5b:	48 89 ce             	mov    %rcx,%rsi
  400f5e:	48 89 c7             	mov    %rax,%rdi
  400f61:	e8 b0 04 00 00       	callq  401416 <_ZNSt12_Vector_baseIiSaIiEE13_M_deallocateEPim>
  400f66:	48 8b 45 e8          	mov    -0x18(%rbp),%rax
  400f6a:	48 89 c7             	mov    %rax,%rdi
  400f6d:	e8 7e ff ff ff       	callq  400ef0 <_ZNSt12_Vector_baseIiSaIiEE12_Vector_implD1Ev>
  400f72:	eb 1a                	jmp    400f8e <_ZNSt12_Vector_baseIiSaIiEED1Ev+0x6a>
  400f74:	48 89 c3             	mov    %rax,%rbx
  400f77:	48 8b 45 e8          	mov    -0x18(%rbp),%rax
  400f7b:	48 89 c7             	mov    %rax,%rdi
  400f7e:	e8 6d ff ff ff       	callq  400ef0 <_ZNSt12_Vector_baseIiSaIiEE12_Vector_implD1Ev>
  400f83:	48 89 d8             	mov    %rbx,%rax
  400f86:	48 89 c7             	mov    %rax,%rdi
  400f89:	e8 42 f9 ff ff       	callq  4008d0 <_Unwind_Resume@plt>
  400f8e:	48 83 c4 18          	add    $0x18,%rsp
  400f92:	5b                   	pop    %rbx
  400f93:	5d                   	pop    %rbp
  400f94:	c3                   	retq   
  400f95:	90                   	nop

0000000000400f96 <_ZNSt12_Vector_baseIiSaIiEE19_M_get_Tp_allocatorEv>:
  400f96:	55                   	push   %rbp
  400f97:	48 89 e5             	mov    %rsp,%rbp
  400f9a:	48 89 7d f8          	mov    %rdi,-0x8(%rbp)
  400f9e:	48 8b 45 f8          	mov    -0x8(%rbp),%rax
  400fa2:	5d                   	pop    %rbp
  400fa3:	c3                   	retq   

0000000000400fa4 <_ZSt8_DestroyIPiiEvT_S1_RSaIT0_E>:
  400fa4:	55                   	push   %rbp
  400fa5:	48 89 e5             	mov    %rsp,%rbp
  400fa8:	48 83 ec 20          	sub    $0x20,%rsp
  400fac:	48 89 7d f8          	mov    %rdi,-0x8(%rbp)
  400fb0:	48 89 75 f0          	mov    %rsi,-0x10(%rbp)
  400fb4:	48 89 55 e8          	mov    %rdx,-0x18(%rbp)
  400fb8:	48 8b 55 f0          	mov    -0x10(%rbp),%rdx
  400fbc:	48 8b 45 f8          	mov    -0x8(%rbp),%rax
  400fc0:	48 89 d6             	mov    %rdx,%rsi
  400fc3:	48 89 c7             	mov    %rax,%rdi
  400fc6:	e8 7f 04 00 00       	callq  40144a <_ZSt8_DestroyIPiEvT_S1_>
  400fcb:	c9                   	leaveq 
  400fcc:	c3                   	retq   

0000000000400fcd <_ZN9__gnu_cxx14__alloc_traitsISaIiEE9constructIiEEvRS1_PiRKT_>:
  400fcd:	55                   	push   %rbp
  400fce:	48 89 e5             	mov    %rsp,%rbp
  400fd1:	48 83 ec 20          	sub    $0x20,%rsp
  400fd5:	48 89 7d f8          	mov    %rdi,-0x8(%rbp)
  400fd9:	48 89 75 f0          	mov    %rsi,-0x10(%rbp)
  400fdd:	48 89 55 e8          	mov    %rdx,-0x18(%rbp)
  400fe1:	48 8b 55 e8          	mov    -0x18(%rbp),%rdx
  400fe5:	48 8b 4d f0          	mov    -0x10(%rbp),%rcx
  400fe9:	48 8b 45 f8          	mov    -0x8(%rbp),%rax
  400fed:	48 89 ce             	mov    %rcx,%rsi
  400ff0:	48 89 c7             	mov    %rax,%rdi
  400ff3:	e8 78 04 00 00       	callq  401470 <_ZN9__gnu_cxx13new_allocatorIiE9constructEPiRKi>
  400ff8:	c9                   	leaveq 
  400ff9:	c3                   	retq   

0000000000400ffa <_ZNSt6vectorIiSaIiEE13_M_insert_auxEN9__gnu_cxx17__normal_iteratorIPiS1_EERKi>:
  400ffa:	55                   	push   %rbp
  400ffb:	48 89 e5             	mov    %rsp,%rbp
  400ffe:	41 54                	push   %r12
  401000:	53                   	push   %rbx
  401001:	48 83 ec 50          	sub    $0x50,%rsp
  401005:	48 89 7d b8          	mov    %rdi,-0x48(%rbp)
  401009:	48 89 75 b0          	mov    %rsi,-0x50(%rbp)
  40100d:	48 89 55 a8          	mov    %rdx,-0x58(%rbp)
  401011:	48 8b 45 b8          	mov    -0x48(%rbp),%rax
  401015:	48 8b 50 08          	mov    0x8(%rax),%rdx
  401019:	48 8b 45 b8          	mov    -0x48(%rbp),%rax
  40101d:	48 8b 40 10          	mov    0x10(%rax),%rax
  401021:	48 39 c2             	cmp    %rax,%rdx
  401024:	0f 84 8e 00 00 00    	je     4010b8 <_ZNSt6vectorIiSaIiEE13_M_insert_auxEN9__gnu_cxx17__normal_iteratorIPiS1_EERKi+0xbe>
  40102a:	48 8b 45 b8          	mov    -0x48(%rbp),%rax
  40102e:	48 8b 40 08          	mov    0x8(%rax),%rax
  401032:	48 8d 50 fc          	lea    -0x4(%rax),%rdx
  401036:	48 8b 45 b8          	mov    -0x48(%rbp),%rax
  40103a:	48 8b 48 08          	mov    0x8(%rax),%rcx
  40103e:	48 8b 45 b8          	mov    -0x48(%rbp),%rax
  401042:	48 89 ce             	mov    %rcx,%rsi
  401045:	48 89 c7             	mov    %rax,%rdi
  401048:	e8 80 ff ff ff       	callq  400fcd <_ZN9__gnu_cxx14__alloc_traitsISaIiEE9constructIiEEvRS1_PiRKT_>
  40104d:	48 8b 45 b8          	mov    -0x48(%rbp),%rax
  401051:	48 8b 40 08          	mov    0x8(%rax),%rax
  401055:	48 8d 50 04          	lea    0x4(%rax),%rdx
  401059:	48 8b 45 b8          	mov    -0x48(%rbp),%rax
  40105d:	48 89 50 08          	mov    %rdx,0x8(%rax)
  401061:	48 8b 45 a8          	mov    -0x58(%rbp),%rax
  401065:	8b 00                	mov    (%rax),%eax
  401067:	89 45 e4             	mov    %eax,-0x1c(%rbp)
  40106a:	48 8b 45 b8          	mov    -0x48(%rbp),%rax
  40106e:	48 8b 40 08          	mov    0x8(%rax),%rax
  401072:	4c 8d 60 fc          	lea    -0x4(%rax),%r12
  401076:	48 8b 45 b8          	mov    -0x48(%rbp),%rax
  40107a:	48 8b 40 08          	mov    0x8(%rax),%rax
  40107e:	48 8d 58 f8          	lea    -0x8(%rax),%rbx
  401082:	48 8d 45 b0          	lea    -0x50(%rbp),%rax
  401086:	48 89 c7             	mov    %rax,%rdi
  401089:	e8 22 03 00 00       	callq  4013b0 <_ZNK9__gnu_cxx17__normal_iteratorIPiSt6vectorIiSaIiEEE4baseEv>
  40108e:	48 8b 00             	mov    (%rax),%rax
  401091:	4c 89 e2             	mov    %r12,%rdx
  401094:	48 89 de             	mov    %rbx,%rsi
  401097:	48 89 c7             	mov    %rax,%rdi
  40109a:	e8 05 04 00 00       	callq  4014a4 <_ZSt13copy_backwardIPiS0_ET0_T_S2_S1_>
  40109f:	48 8d 45 b0          	lea    -0x50(%rbp),%rax
  4010a3:	48 89 c7             	mov    %rax,%rdi
  4010a6:	e8 33 fe ff ff       	callq  400ede <_ZNK9__gnu_cxx17__normal_iteratorIPiSt6vectorIiSaIiEEEdeEv>
  4010ab:	48 89 c2             	mov    %rax,%rdx
  4010ae:	8b 45 e4             	mov    -0x1c(%rbp),%eax
  4010b1:	89 02                	mov    %eax,(%rdx)
  4010b3:	e9 21 02 00 00       	jmpq   4012d9 <_ZNSt6vectorIiSaIiEE13_M_insert_auxEN9__gnu_cxx17__normal_iteratorIPiS1_EERKi+0x2df>
  4010b8:	48 8b 45 b8          	mov    -0x48(%rbp),%rax
  4010bc:	ba 05 2c 40 00       	mov    $0x402c05,%edx
  4010c1:	be 01 00 00 00       	mov    $0x1,%esi
  4010c6:	48 89 c7             	mov    %rax,%rdi
  4010c9:	e8 22 04 00 00       	callq  4014f0 <_ZNKSt6vectorIiSaIiEE12_M_check_lenEmPKc>
  4010ce:	48 89 45 d8          	mov    %rax,-0x28(%rbp)
  4010d2:	48 8b 45 b8          	mov    -0x48(%rbp),%rax
  4010d6:	48 89 c7             	mov    %rax,%rdi
  4010d9:	e8 cc fc ff ff       	callq  400daa <_ZNSt6vectorIiSaIiEE5beginEv>
  4010de:	48 89 45 c0          	mov    %rax,-0x40(%rbp)
  4010e2:	48 8d 55 c0          	lea    -0x40(%rbp),%rdx
  4010e6:	48 8d 45 b0          	lea    -0x50(%rbp),%rax
  4010ea:	48 89 d6             	mov    %rdx,%rsi
  4010ed:	48 89 c7             	mov    %rax,%rdi
  4010f0:	e8 c4 04 00 00       	callq  4015b9 <_ZN9__gnu_cxxmiIPiSt6vectorIiSaIiEEEENS_17__normal_iteratorIT_T0_E15difference_typeERKS8_SB_>
  4010f5:	48 89 45 d0          	mov    %rax,-0x30(%rbp)
  4010f9:	48 8b 45 b8          	mov    -0x48(%rbp),%rax
  4010fd:	48 8b 55 d8          	mov    -0x28(%rbp),%rdx
  401101:	48 89 d6             	mov    %rdx,%rsi
  401104:	48 89 c7             	mov    %rax,%rdi
  401107:	e8 f0 04 00 00       	callq  4015fc <_ZNSt12_Vector_baseIiSaIiEE11_M_allocateEm>
  40110c:	48 89 45 c8          	mov    %rax,-0x38(%rbp)
  401110:	48 8b 45 c8          	mov    -0x38(%rbp),%rax
  401114:	48 89 45 e8          	mov    %rax,-0x18(%rbp)
  401118:	48 8b 45 d0          	mov    -0x30(%rbp),%rax
  40111c:	48 8d 14 85 00 00 00 	lea    0x0(,%rax,4),%rdx
  401123:	00 
  401124:	48 8b 45 c8          	mov    -0x38(%rbp),%rax
  401128:	48 8d 0c 02          	lea    (%rdx,%rax,1),%rcx
  40112c:	48 8b 45 b8          	mov    -0x48(%rbp),%rax
  401130:	48 8b 55 a8          	mov    -0x58(%rbp),%rdx
  401134:	48 89 ce             	mov    %rcx,%rsi
  401137:	48 89 c7             	mov    %rax,%rdi
  40113a:	e8 8e fe ff ff       	callq  400fcd <_ZN9__gnu_cxx14__alloc_traitsISaIiEE9constructIiEEvRS1_PiRKT_>
  40113f:	48 c7 45 e8 00 00 00 	movq   $0x0,-0x18(%rbp)
  401146:	00 
  401147:	48 8b 45 b8          	mov    -0x48(%rbp),%rax
  40114b:	48 89 c7             	mov    %rax,%rdi
  40114e:	e8 43 fe ff ff       	callq  400f96 <_ZNSt12_Vector_baseIiSaIiEE19_M_get_Tp_allocatorEv>
  401153:	48 89 c3             	mov    %rax,%rbx
  401156:	48 8d 45 b0          	lea    -0x50(%rbp),%rax
  40115a:	48 89 c7             	mov    %rax,%rdi
  40115d:	e8 4e 02 00 00       	callq  4013b0 <_ZNK9__gnu_cxx17__normal_iteratorIPiSt6vectorIiSaIiEEE4baseEv>
  401162:	48 8b 30             	mov    (%rax),%rsi
  401165:	48 8b 45 b8          	mov    -0x48(%rbp),%rax
  401169:	48 8b 00             	mov    (%rax),%rax
  40116c:	48 8b 55 c8          	mov    -0x38(%rbp),%rdx
  401170:	48 89 d9             	mov    %rbx,%rcx
  401173:	48 89 c7             	mov    %rax,%rdi
  401176:	e8 b4 04 00 00       	callq  40162f <_ZSt34__uninitialized_move_if_noexcept_aIPiS0_SaIiEET0_T_S3_S2_RT1_>
  40117b:	48 89 45 e8          	mov    %rax,-0x18(%rbp)
  40117f:	48 83 45 e8 04       	addq   $0x4,-0x18(%rbp)
  401184:	48 8b 45 b8          	mov    -0x48(%rbp),%rax
  401188:	48 89 c7             	mov    %rax,%rdi
  40118b:	e8 06 fe ff ff       	callq  400f96 <_ZNSt12_Vector_baseIiSaIiEE19_M_get_Tp_allocatorEv>
  401190:	49 89 c4             	mov    %rax,%r12
  401193:	48 8b 45 b8          	mov    -0x48(%rbp),%rax
  401197:	48 8b 58 08          	mov    0x8(%rax),%rbx
  40119b:	48 8d 45 b0          	lea    -0x50(%rbp),%rax
  40119f:	48 89 c7             	mov    %rax,%rdi
  4011a2:	e8 09 02 00 00       	callq  4013b0 <_ZNK9__gnu_cxx17__normal_iteratorIPiSt6vectorIiSaIiEEE4baseEv>
  4011a7:	48 8b 00             	mov    (%rax),%rax
  4011aa:	48 8b 55 e8          	mov    -0x18(%rbp),%rdx
  4011ae:	4c 89 e1             	mov    %r12,%rcx
  4011b1:	48 89 de             	mov    %rbx,%rsi
  4011b4:	48 89 c7             	mov    %rax,%rdi
  4011b7:	e8 73 04 00 00       	callq  40162f <_ZSt34__uninitialized_move_if_noexcept_aIPiS0_SaIiEET0_T_S3_S2_RT1_>
  4011bc:	48 89 45 e8          	mov    %rax,-0x18(%rbp)
  4011c0:	48 8b 45 b8          	mov    -0x48(%rbp),%rax
  4011c4:	48 89 c7             	mov    %rax,%rdi
  4011c7:	e8 ca fd ff ff       	callq  400f96 <_ZNSt12_Vector_baseIiSaIiEE19_M_get_Tp_allocatorEv>
  4011cc:	48 89 c2             	mov    %rax,%rdx
  4011cf:	48 8b 45 b8          	mov    -0x48(%rbp),%rax
  4011d3:	48 8b 48 08          	mov    0x8(%rax),%rcx
  4011d7:	48 8b 45 b8          	mov    -0x48(%rbp),%rax
  4011db:	48 8b 00             	mov    (%rax),%rax
  4011de:	48 89 ce             	mov    %rcx,%rsi
  4011e1:	48 89 c7             	mov    %rax,%rdi
  4011e4:	e8 bb fd ff ff       	callq  400fa4 <_ZSt8_DestroyIPiiEvT_S1_RSaIT0_E>
  4011e9:	48 8b 45 b8          	mov    -0x48(%rbp),%rax
  4011ed:	48 8b 40 10          	mov    0x10(%rax),%rax
  4011f1:	48 89 c2             	mov    %rax,%rdx
  4011f4:	48 8b 45 b8          	mov    -0x48(%rbp),%rax
  4011f8:	48 8b 00             	mov    (%rax),%rax
  4011fb:	48 29 c2             	sub    %rax,%rdx
  4011fe:	48 89 d0             	mov    %rdx,%rax
  401201:	48 c1 f8 02          	sar    $0x2,%rax
  401205:	48 89 c2             	mov    %rax,%rdx
  401208:	48 8b 45 b8          	mov    -0x48(%rbp),%rax
  40120c:	48 8b 08             	mov    (%rax),%rcx
  40120f:	48 8b 45 b8          	mov    -0x48(%rbp),%rax
  401213:	48 89 ce             	mov    %rcx,%rsi
  401216:	48 89 c7             	mov    %rax,%rdi
  401219:	e8 f8 01 00 00       	callq  401416 <_ZNSt12_Vector_baseIiSaIiEE13_M_deallocateEPim>
  40121e:	48 8b 45 b8          	mov    -0x48(%rbp),%rax
  401222:	48 8b 55 c8          	mov    -0x38(%rbp),%rdx
  401226:	48 89 10             	mov    %rdx,(%rax)
  401229:	48 8b 45 b8          	mov    -0x48(%rbp),%rax
  40122d:	48 8b 55 e8          	mov    -0x18(%rbp),%rdx
  401231:	48 89 50 08          	mov    %rdx,0x8(%rax)
  401235:	48 8b 45 d8          	mov    -0x28(%rbp),%rax
  401239:	48 8d 14 85 00 00 00 	lea    0x0(,%rax,4),%rdx
  401240:	00 
  401241:	48 8b 45 c8          	mov    -0x38(%rbp),%rax
  401245:	48 01 c2             	add    %rax,%rdx
  401248:	48 8b 45 b8          	mov    -0x48(%rbp),%rax
  40124c:	48 89 50 10          	mov    %rdx,0x10(%rax)
  401250:	e9 84 00 00 00       	jmpq   4012d9 <_ZNSt6vectorIiSaIiEE13_M_insert_auxEN9__gnu_cxx17__normal_iteratorIPiS1_EERKi+0x2df>
  401255:	48 89 c7             	mov    %rax,%rdi
  401258:	e8 43 f6 ff ff       	callq  4008a0 <__cxa_begin_catch@plt>
  40125d:	48 83 7d e8 00       	cmpq   $0x0,-0x18(%rbp)
  401262:	75 24                	jne    401288 <_ZNSt6vectorIiSaIiEE13_M_insert_auxEN9__gnu_cxx17__normal_iteratorIPiS1_EERKi+0x28e>
  401264:	48 8b 45 d0          	mov    -0x30(%rbp),%rax
  401268:	48 8d 14 85 00 00 00 	lea    0x0(,%rax,4),%rdx
  40126f:	00 
  401270:	48 8b 45 c8          	mov    -0x38(%rbp),%rax
  401274:	48 01 c2             	add    %rax,%rdx
  401277:	48 8b 45 b8          	mov    -0x48(%rbp),%rax
  40127b:	48 89 d6             	mov    %rdx,%rsi
  40127e:	48 89 c7             	mov    %rax,%rdi
  401281:	e8 db 03 00 00       	callq  401661 <_ZN9__gnu_cxx14__alloc_traitsISaIiEE7destroyERS1_Pi>
  401286:	eb 22                	jmp    4012aa <_ZNSt6vectorIiSaIiEE13_M_insert_auxEN9__gnu_cxx17__normal_iteratorIPiS1_EERKi+0x2b0>
  401288:	48 8b 45 b8          	mov    -0x48(%rbp),%rax
  40128c:	48 89 c7             	mov    %rax,%rdi
  40128f:	e8 02 fd ff ff       	callq  400f96 <_ZNSt12_Vector_baseIiSaIiEE19_M_get_Tp_allocatorEv>
  401294:	48 89 c2             	mov    %rax,%rdx
  401297:	48 8b 4d e8          	mov    -0x18(%rbp),%rcx
  40129b:	48 8b 45 c8          	mov    -0x38(%rbp),%rax
  40129f:	48 89 ce             	mov    %rcx,%rsi
  4012a2:	48 89 c7             	mov    %rax,%rdi
  4012a5:	e8 fa fc ff ff       	callq  400fa4 <_ZSt8_DestroyIPiiEvT_S1_RSaIT0_E>
  4012aa:	48 8b 45 b8          	mov    -0x48(%rbp),%rax
  4012ae:	48 8b 55 d8          	mov    -0x28(%rbp),%rdx
  4012b2:	48 8b 4d c8          	mov    -0x38(%rbp),%rcx
  4012b6:	48 89 ce             	mov    %rcx,%rsi
  4012b9:	48 89 c7             	mov    %rax,%rdi
  4012bc:	e8 55 01 00 00       	callq  401416 <_ZNSt12_Vector_baseIiSaIiEE13_M_deallocateEPim>
  4012c1:	e8 7a f5 ff ff       	callq  400840 <__cxa_rethrow@plt>
  4012c6:	48 89 c3             	mov    %rax,%rbx
  4012c9:	e8 b2 f5 ff ff       	callq  400880 <__cxa_end_catch@plt>
  4012ce:	48 89 d8             	mov    %rbx,%rax
  4012d1:	48 89 c7             	mov    %rax,%rdi
  4012d4:	e8 f7 f5 ff ff       	callq  4008d0 <_Unwind_Resume@plt>
  4012d9:	48 83 c4 50          	add    $0x50,%rsp
  4012dd:	5b                   	pop    %rbx
  4012de:	41 5c                	pop    %r12
  4012e0:	5d                   	pop    %rbp
  4012e1:	c3                   	retq   

00000000004012e2 <_ZN9__gnu_cxx17__normal_iteratorIPiSt6vectorIiSaIiEEEC1ERKS1_>:
  4012e2:	55                   	push   %rbp
  4012e3:	48 89 e5             	mov    %rsp,%rbp
  4012e6:	48 89 7d f8          	mov    %rdi,-0x8(%rbp)
  4012ea:	48 89 75 f0          	mov    %rsi,-0x10(%rbp)
  4012ee:	48 8b 45 f0          	mov    -0x10(%rbp),%rax
  4012f2:	48 8b 10             	mov    (%rax),%rdx
  4012f5:	48 8b 45 f8          	mov    -0x8(%rbp),%rax
  4012f9:	48 89 10             	mov    %rdx,(%rax)
  4012fc:	5d                   	pop    %rbp
  4012fd:	c3                   	retq   

00000000004012fe <_ZN9__gnu_cxx5__ops16__iter_comp_iterISt7greaterIiEEENS0_15_Iter_comp_iterIT_EES5_>:
  4012fe:	55                   	push   %rbp
  4012ff:	48 89 e5             	mov    %rsp,%rbp
  401302:	53                   	push   %rbx
  401303:	48 83 ec 18          	sub    $0x18,%rsp
  401307:	48 83 ec 08          	sub    $0x8,%rsp
  40130b:	48 8d 45 ef          	lea    -0x11(%rbp),%rax
  40130f:	52                   	push   %rdx
  401310:	48 89 c7             	mov    %rax,%rdi
  401313:	e8 6e 03 00 00       	callq  401686 <_ZN9__gnu_cxx5__ops15_Iter_comp_iterISt7greaterIiEEC1ES3_>
  401318:	48 83 c4 10          	add    $0x10,%rsp
  40131c:	89 d8                	mov    %ebx,%eax
  40131e:	48 8b 5d f8          	mov    -0x8(%rbp),%rbx
  401322:	c9                   	leaveq 
  401323:	c3                   	retq   

0000000000401324 <_ZSt6__sortIN9__gnu_cxx17__normal_iteratorIPiSt6vectorIiSaIiEEEENS0_5__ops15_Iter_comp_iterISt7greaterIiEEEEvT_SC_T0_>:
  401324:	55                   	push   %rbp
  401325:	48 89 e5             	mov    %rsp,%rbp
  401328:	48 83 ec 20          	sub    $0x20,%rsp
  40132c:	48 89 7d f0          	mov    %rdi,-0x10(%rbp)
  401330:	48 89 75 e0          	mov    %rsi,-0x20(%rbp)
  401334:	48 8d 55 e0          	lea    -0x20(%rbp),%rdx
  401338:	48 8d 45 f0          	lea    -0x10(%rbp),%rax
  40133c:	48 89 d6             	mov    %rdx,%rsi
  40133f:	48 89 c7             	mov    %rax,%rdi
  401342:	e8 5b fb ff ff       	callq  400ea2 <_ZN9__gnu_cxxneIPiSt6vectorIiSaIiEEEEbRKNS_17__normal_iteratorIT_T0_EESA_>
  401347:	84 c0                	test   %al,%al
  401349:	74 62                	je     4013ad <_ZSt6__sortIN9__gnu_cxx17__normal_iteratorIPiSt6vectorIiSaIiEEEENS0_5__ops15_Iter_comp_iterISt7greaterIiEEEEvT_SC_T0_+0x89>
  40134b:	48 8d 55 f0          	lea    -0x10(%rbp),%rdx
  40134f:	48 8d 45 e0          	lea    -0x20(%rbp),%rax
  401353:	48 89 d6             	mov    %rdx,%rsi
  401356:	48 89 c7             	mov    %rax,%rdi
  401359:	e8 5b 02 00 00       	callq  4015b9 <_ZN9__gnu_cxxmiIPiSt6vectorIiSaIiEEEENS_17__normal_iteratorIT_T0_E15difference_typeERKS8_SB_>
  40135e:	48 89 c7             	mov    %rax,%rdi
  401361:	e8 10 f9 ff ff       	callq  400c76 <_ZSt4__lgl>
  401366:	48 8d 34 00          	lea    (%rax,%rax,1),%rsi
  40136a:	48 83 ec 08          	sub    $0x8,%rsp
  40136e:	48 8b 4d e0          	mov    -0x20(%rbp),%rcx
  401372:	48 8b 45 f0          	mov    -0x10(%rbp),%rax
  401376:	0f b6 55 10          	movzbl 0x10(%rbp),%edx
  40137a:	52                   	push   %rdx
  40137b:	48 89 f2             	mov    %rsi,%rdx
  40137e:	48 89 ce             	mov    %rcx,%rsi
  401381:	48 89 c7             	mov    %rax,%rdi
  401384:	e8 07 03 00 00       	callq  401690 <_ZSt16__introsort_loopIN9__gnu_cxx17__normal_iteratorIPiSt6vectorIiSaIiEEEElNS0_5__ops15_Iter_comp_iterISt7greaterIiEEEEvT_SC_T0_T1_>
  401389:	48 83 c4 10          	add    $0x10,%rsp
  40138d:	48 83 ec 08          	sub    $0x8,%rsp
  401391:	48 8b 55 e0          	mov    -0x20(%rbp),%rdx
  401395:	48 8b 45 f0          	mov    -0x10(%rbp),%rax
  401399:	0f b6 4d 10          	movzbl 0x10(%rbp),%ecx
  40139d:	51                   	push   %rcx
  40139e:	48 89 d6             	mov    %rdx,%rsi
  4013a1:	48 89 c7             	mov    %rax,%rdi
  4013a4:	e8 a6 03 00 00       	callq  40174f <_ZSt22__final_insertion_sortIN9__gnu_cxx17__normal_iteratorIPiSt6vectorIiSaIiEEEENS0_5__ops15_Iter_comp_iterISt7greaterIiEEEEvT_SC_T0_>
  4013a9:	48 83 c4 10          	add    $0x10,%rsp
  4013ad:	c9                   	leaveq 
  4013ae:	c3                   	retq   
  4013af:	90                   	nop

00000000004013b0 <_ZNK9__gnu_cxx17__normal_iteratorIPiSt6vectorIiSaIiEEE4baseEv>:
  4013b0:	55                   	push   %rbp
  4013b1:	48 89 e5             	mov    %rsp,%rbp
  4013b4:	48 89 7d f8          	mov    %rdi,-0x8(%rbp)
  4013b8:	48 8b 45 f8          	mov    -0x8(%rbp),%rax
  4013bc:	5d                   	pop    %rbp
  4013bd:	c3                   	retq   

00000000004013be <_ZNSt12_Vector_baseIiSaIiEE12_Vector_implC1Ev>:
  4013be:	55                   	push   %rbp
  4013bf:	48 89 e5             	mov    %rsp,%rbp
  4013c2:	48 83 ec 10          	sub    $0x10,%rsp
  4013c6:	48 89 7d f8          	mov    %rdi,-0x8(%rbp)
  4013ca:	48 8b 45 f8          	mov    -0x8(%rbp),%rax
  4013ce:	48 89 c7             	mov    %rax,%rdi
  4013d1:	e8 2c 04 00 00       	callq  401802 <_ZNSaIiEC1Ev>
  4013d6:	48 8b 45 f8          	mov    -0x8(%rbp),%rax
  4013da:	48 c7 00 00 00 00 00 	movq   $0x0,(%rax)
  4013e1:	48 8b 45 f8          	mov    -0x8(%rbp),%rax
  4013e5:	48 c7 40 08 00 00 00 	movq   $0x0,0x8(%rax)
  4013ec:	00 
  4013ed:	48 8b 45 f8          	mov    -0x8(%rbp),%rax
  4013f1:	48 c7 40 10 00 00 00 	movq   $0x0,0x10(%rax)
  4013f8:	00 
  4013f9:	c9                   	leaveq 
  4013fa:	c3                   	retq   
  4013fb:	90                   	nop

00000000004013fc <_ZNSaIiED1Ev>:
  4013fc:	55                   	push   %rbp
  4013fd:	48 89 e5             	mov    %rsp,%rbp
  401400:	48 83 ec 10          	sub    $0x10,%rsp
  401404:	48 89 7d f8          	mov    %rdi,-0x8(%rbp)
  401408:	48 8b 45 f8          	mov    -0x8(%rbp),%rax
  40140c:	48 89 c7             	mov    %rax,%rdi
  40140f:	e8 08 04 00 00       	callq  40181c <_ZN9__gnu_cxx13new_allocatorIiED1Ev>
  401414:	c9                   	leaveq 
  401415:	c3                   	retq   

0000000000401416 <_ZNSt12_Vector_baseIiSaIiEE13_M_deallocateEPim>:
  401416:	55                   	push   %rbp
  401417:	48 89 e5             	mov    %rsp,%rbp
  40141a:	48 83 ec 20          	sub    $0x20,%rsp
  40141e:	48 89 7d f8          	mov    %rdi,-0x8(%rbp)
  401422:	48 89 75 f0          	mov    %rsi,-0x10(%rbp)
  401426:	48 89 55 e8          	mov    %rdx,-0x18(%rbp)
  40142a:	48 83 7d f0 00       	cmpq   $0x0,-0x10(%rbp)
  40142f:	74 17                	je     401448 <_ZNSt12_Vector_baseIiSaIiEE13_M_deallocateEPim+0x32>
  401431:	48 8b 45 f8          	mov    -0x8(%rbp),%rax
  401435:	48 8b 55 e8          	mov    -0x18(%rbp),%rdx
  401439:	48 8b 4d f0          	mov    -0x10(%rbp),%rcx
  40143d:	48 89 ce             	mov    %rcx,%rsi
  401440:	48 89 c7             	mov    %rax,%rdi
  401443:	e8 de 03 00 00       	callq  401826 <_ZN9__gnu_cxx14__alloc_traitsISaIiEE10deallocateERS1_Pim>
  401448:	c9                   	leaveq 
  401449:	c3                   	retq   

000000000040144a <_ZSt8_DestroyIPiEvT_S1_>:
  40144a:	55                   	push   %rbp
  40144b:	48 89 e5             	mov    %rsp,%rbp
  40144e:	48 83 ec 10          	sub    $0x10,%rsp
  401452:	48 89 7d f8          	mov    %rdi,-0x8(%rbp)
  401456:	48 89 75 f0          	mov    %rsi,-0x10(%rbp)
  40145a:	48 8b 55 f0          	mov    -0x10(%rbp),%rdx
  40145e:	48 8b 45 f8          	mov    -0x8(%rbp),%rax
  401462:	48 89 d6             	mov    %rdx,%rsi
  401465:	48 89 c7             	mov    %rax,%rdi
  401468:	e8 e6 03 00 00       	callq  401853 <_ZNSt12_Destroy_auxILb1EE9__destroyIPiEEvT_S3_>
  40146d:	c9                   	leaveq 
  40146e:	c3                   	retq   
  40146f:	90                   	nop

0000000000401470 <_ZN9__gnu_cxx13new_allocatorIiE9constructEPiRKi>:
  401470:	55                   	push   %rbp
  401471:	48 89 e5             	mov    %rsp,%rbp
  401474:	48 83 ec 20          	sub    $0x20,%rsp
  401478:	48 89 7d f8          	mov    %rdi,-0x8(%rbp)
  40147c:	48 89 75 f0          	mov    %rsi,-0x10(%rbp)
  401480:	48 89 55 e8          	mov    %rdx,-0x18(%rbp)
  401484:	48 8b 45 f0          	mov    -0x10(%rbp),%rax
  401488:	48 89 c6             	mov    %rax,%rsi
  40148b:	bf 04 00 00 00       	mov    $0x4,%edi
  401490:	e8 08 f8 ff ff       	callq  400c9d <_ZnwmPv>
  401495:	48 85 c0             	test   %rax,%rax
  401498:	74 08                	je     4014a2 <_ZN9__gnu_cxx13new_allocatorIiE9constructEPiRKi+0x32>
  40149a:	48 8b 55 e8          	mov    -0x18(%rbp),%rdx
  40149e:	8b 12                	mov    (%rdx),%edx
  4014a0:	89 10                	mov    %edx,(%rax)
  4014a2:	c9                   	leaveq 
  4014a3:	c3                   	retq   

00000000004014a4 <_ZSt13copy_backwardIPiS0_ET0_T_S2_S1_>:
  4014a4:	55                   	push   %rbp
  4014a5:	48 89 e5             	mov    %rsp,%rbp
  4014a8:	53                   	push   %rbx
  4014a9:	48 83 ec 28          	sub    $0x28,%rsp
  4014ad:	48 89 7d e8          	mov    %rdi,-0x18(%rbp)
  4014b1:	48 89 75 e0          	mov    %rsi,-0x20(%rbp)
  4014b5:	48 89 55 d8          	mov    %rdx,-0x28(%rbp)
  4014b9:	48 8b 45 e0          	mov    -0x20(%rbp),%rax
  4014bd:	48 89 c7             	mov    %rax,%rdi
  4014c0:	e8 9c 03 00 00       	callq  401861 <_ZSt12__miter_baseIPiENSt11_Miter_baseIT_E13iterator_typeES2_>
  4014c5:	48 89 c3             	mov    %rax,%rbx
  4014c8:	48 8b 45 e8          	mov    -0x18(%rbp),%rax
  4014cc:	48 89 c7             	mov    %rax,%rdi
  4014cf:	e8 8d 03 00 00       	callq  401861 <_ZSt12__miter_baseIPiENSt11_Miter_baseIT_E13iterator_typeES2_>
  4014d4:	48 89 c1             	mov    %rax,%rcx
  4014d7:	48 8b 45 d8          	mov    -0x28(%rbp),%rax
  4014db:	48 89 c2             	mov    %rax,%rdx
  4014de:	48 89 de             	mov    %rbx,%rsi
  4014e1:	48 89 cf             	mov    %rcx,%rdi
  4014e4:	e8 92 03 00 00       	callq  40187b <_ZSt23__copy_move_backward_a2ILb0EPiS0_ET1_T0_S2_S1_>
  4014e9:	48 83 c4 28          	add    $0x28,%rsp
  4014ed:	5b                   	pop    %rbx
  4014ee:	5d                   	pop    %rbp
  4014ef:	c3                   	retq   

00000000004014f0 <_ZNKSt6vectorIiSaIiEE12_M_check_lenEmPKc>:
  4014f0:	55                   	push   %rbp
  4014f1:	48 89 e5             	mov    %rsp,%rbp
  4014f4:	53                   	push   %rbx
  4014f5:	48 83 ec 38          	sub    $0x38,%rsp
  4014f9:	48 89 7d d8          	mov    %rdi,-0x28(%rbp)
  4014fd:	48 89 75 d0          	mov    %rsi,-0x30(%rbp)
  401501:	48 89 55 c8          	mov    %rdx,-0x38(%rbp)
  401505:	48 8b 45 d8          	mov    -0x28(%rbp),%rax
  401509:	48 89 c7             	mov    %rax,%rdi
  40150c:	e8 e9 03 00 00       	callq  4018fa <_ZNKSt6vectorIiSaIiEE8max_sizeEv>
  401511:	48 89 c3             	mov    %rax,%rbx
  401514:	48 8b 45 d8          	mov    -0x28(%rbp),%rax
  401518:	48 89 c7             	mov    %rax,%rdi
  40151b:	e8 b4 03 00 00       	callq  4018d4 <_ZNKSt6vectorIiSaIiEE4sizeEv>
  401520:	48 29 c3             	sub    %rax,%rbx
  401523:	48 89 da             	mov    %rbx,%rdx
  401526:	48 8b 45 d0          	mov    -0x30(%rbp),%rax
  40152a:	48 39 c2             	cmp    %rax,%rdx
  40152d:	0f 92 c0             	setb   %al
  401530:	84 c0                	test   %al,%al
  401532:	74 0c                	je     401540 <_ZNKSt6vectorIiSaIiEE12_M_check_lenEmPKc+0x50>
  401534:	48 8b 45 c8          	mov    -0x38(%rbp),%rax
  401538:	48 89 c7             	mov    %rax,%rdi
  40153b:	e8 d0 f2 ff ff       	callq  400810 <_ZSt20__throw_length_errorPKc@plt>
  401540:	48 8b 45 d8          	mov    -0x28(%rbp),%rax
  401544:	48 89 c7             	mov    %rax,%rdi
  401547:	e8 88 03 00 00       	callq  4018d4 <_ZNKSt6vectorIiSaIiEE4sizeEv>
  40154c:	48 89 c3             	mov    %rax,%rbx
  40154f:	48 8b 45 d8          	mov    -0x28(%rbp),%rax
  401553:	48 89 c7             	mov    %rax,%rdi
  401556:	e8 79 03 00 00       	callq  4018d4 <_ZNKSt6vectorIiSaIiEE4sizeEv>
  40155b:	48 89 45 e0          	mov    %rax,-0x20(%rbp)
  40155f:	48 8d 55 d0          	lea    -0x30(%rbp),%rdx
  401563:	48 8d 45 e0          	lea    -0x20(%rbp),%rax
  401567:	48 89 d6             	mov    %rdx,%rsi
  40156a:	48 89 c7             	mov    %rax,%rdi
  40156d:	e8 aa 03 00 00       	callq  40191c <_ZSt3maxImERKT_S2_S2_>
  401572:	48 8b 00             	mov    (%rax),%rax
  401575:	48 01 d8             	add    %rbx,%rax
  401578:	48 89 45 e8          	mov    %rax,-0x18(%rbp)
  40157c:	48 8b 45 d8          	mov    -0x28(%rbp),%rax
  401580:	48 89 c7             	mov    %rax,%rdi
  401583:	e8 4c 03 00 00       	callq  4018d4 <_ZNKSt6vectorIiSaIiEE4sizeEv>
  401588:	48 3b 45 e8          	cmp    -0x18(%rbp),%rax
  40158c:	77 12                	ja     4015a0 <_ZNKSt6vectorIiSaIiEE12_M_check_lenEmPKc+0xb0>
  40158e:	48 8b 45 d8          	mov    -0x28(%rbp),%rax
  401592:	48 89 c7             	mov    %rax,%rdi
  401595:	e8 60 03 00 00       	callq  4018fa <_ZNKSt6vectorIiSaIiEE8max_sizeEv>
  40159a:	48 3b 45 e8          	cmp    -0x18(%rbp),%rax
  40159e:	73 0e                	jae    4015ae <_ZNKSt6vectorIiSaIiEE12_M_check_lenEmPKc+0xbe>
  4015a0:	48 8b 45 d8          	mov    -0x28(%rbp),%rax
  4015a4:	48 89 c7             	mov    %rax,%rdi
  4015a7:	e8 4e 03 00 00       	callq  4018fa <_ZNKSt6vectorIiSaIiEE8max_sizeEv>
  4015ac:	eb 04                	jmp    4015b2 <_ZNKSt6vectorIiSaIiEE12_M_check_lenEmPKc+0xc2>
  4015ae:	48 8b 45 e8          	mov    -0x18(%rbp),%rax
  4015b2:	48 83 c4 38          	add    $0x38,%rsp
  4015b6:	5b                   	pop    %rbx
  4015b7:	5d                   	pop    %rbp
  4015b8:	c3                   	retq   

00000000004015b9 <_ZN9__gnu_cxxmiIPiSt6vectorIiSaIiEEEENS_17__normal_iteratorIT_T0_E15difference_typeERKS8_SB_>:
  4015b9:	55                   	push   %rbp
  4015ba:	48 89 e5             	mov    %rsp,%rbp
  4015bd:	53                   	push   %rbx
  4015be:	48 83 ec 18          	sub    $0x18,%rsp
  4015c2:	48 89 7d e8          	mov    %rdi,-0x18(%rbp)
  4015c6:	48 89 75 e0          	mov    %rsi,-0x20(%rbp)
  4015ca:	48 8b 45 e8          	mov    -0x18(%rbp),%rax
  4015ce:	48 89 c7             	mov    %rax,%rdi
  4015d1:	e8 da fd ff ff       	callq  4013b0 <_ZNK9__gnu_cxx17__normal_iteratorIPiSt6vectorIiSaIiEEE4baseEv>
  4015d6:	48 8b 00             	mov    (%rax),%rax
  4015d9:	48 89 c3             	mov    %rax,%rbx
  4015dc:	48 8b 45 e0          	mov    -0x20(%rbp),%rax
  4015e0:	48 89 c7             	mov    %rax,%rdi
  4015e3:	e8 c8 fd ff ff       	callq  4013b0 <_ZNK9__gnu_cxx17__normal_iteratorIPiSt6vectorIiSaIiEEE4baseEv>
  4015e8:	48 8b 00             	mov    (%rax),%rax
  4015eb:	48 29 c3             	sub    %rax,%rbx
  4015ee:	48 89 d8             	mov    %rbx,%rax
  4015f1:	48 c1 f8 02          	sar    $0x2,%rax
  4015f5:	48 83 c4 18          	add    $0x18,%rsp
  4015f9:	5b                   	pop    %rbx
  4015fa:	5d                   	pop    %rbp
  4015fb:	c3                   	retq   

00000000004015fc <_ZNSt12_Vector_baseIiSaIiEE11_M_allocateEm>:
  4015fc:	55                   	push   %rbp
  4015fd:	48 89 e5             	mov    %rsp,%rbp
  401600:	48 83 ec 10          	sub    $0x10,%rsp
  401604:	48 89 7d f8          	mov    %rdi,-0x8(%rbp)
  401608:	48 89 75 f0          	mov    %rsi,-0x10(%rbp)
  40160c:	48 83 7d f0 00       	cmpq   $0x0,-0x10(%rbp)
  401611:	74 15                	je     401628 <_ZNSt12_Vector_baseIiSaIiEE11_M_allocateEm+0x2c>
  401613:	48 8b 45 f8          	mov    -0x8(%rbp),%rax
  401617:	48 8b 55 f0          	mov    -0x10(%rbp),%rdx
  40161b:	48 89 d6             	mov    %rdx,%rsi
  40161e:	48 89 c7             	mov    %rax,%rdi
  401621:	e8 21 03 00 00       	callq  401947 <_ZN9__gnu_cxx14__alloc_traitsISaIiEE8allocateERS1_m>
  401626:	eb 05                	jmp    40162d <_ZNSt12_Vector_baseIiSaIiEE11_M_allocateEm+0x31>
  401628:	b8 00 00 00 00       	mov    $0x0,%eax
  40162d:	c9                   	leaveq 
  40162e:	c3                   	retq   

000000000040162f <_ZSt34__uninitialized_move_if_noexcept_aIPiS0_SaIiEET0_T_S3_S2_RT1_>:
  40162f:	55                   	push   %rbp
  401630:	48 89 e5             	mov    %rsp,%rbp
  401633:	48 83 ec 20          	sub    $0x20,%rsp
  401637:	48 89 7d f8          	mov    %rdi,-0x8(%rbp)
  40163b:	48 89 75 f0          	mov    %rsi,-0x10(%rbp)
  40163f:	48 89 55 e8          	mov    %rdx,-0x18(%rbp)
  401643:	48 89 4d e0          	mov    %rcx,-0x20(%rbp)
  401647:	48 8b 4d e0          	mov    -0x20(%rbp),%rcx
  40164b:	48 8b 55 e8          	mov    -0x18(%rbp),%rdx
  40164f:	48 8b 75 f0          	mov    -0x10(%rbp),%rsi
  401653:	48 8b 45 f8          	mov    -0x8(%rbp),%rax
  401657:	48 89 c7             	mov    %rax,%rdi
  40165a:	e8 12 03 00 00       	callq  401971 <_ZSt22__uninitialized_copy_aIPiS0_iET0_T_S2_S1_RSaIT1_E>
  40165f:	c9                   	leaveq 
  401660:	c3                   	retq   

0000000000401661 <_ZN9__gnu_cxx14__alloc_traitsISaIiEE7destroyERS1_Pi>:
  401661:	55                   	push   %rbp
  401662:	48 89 e5             	mov    %rsp,%rbp
  401665:	48 83 ec 10          	sub    $0x10,%rsp
  401669:	48 89 7d f8          	mov    %rdi,-0x8(%rbp)
  40166d:	48 89 75 f0          	mov    %rsi,-0x10(%rbp)
  401671:	48 8b 55 f0          	mov    -0x10(%rbp),%rdx
  401675:	48 8b 45 f8          	mov    -0x8(%rbp),%rax
  401679:	48 89 d6             	mov    %rdx,%rsi
  40167c:	48 89 c7             	mov    %rax,%rdi
  40167f:	e8 1e 03 00 00       	callq  4019a2 <_ZN9__gnu_cxx13new_allocatorIiE7destroyEPi>
  401684:	c9                   	leaveq 
  401685:	c3                   	retq   

0000000000401686 <_ZN9__gnu_cxx5__ops15_Iter_comp_iterISt7greaterIiEEC1ES3_>:
  401686:	55                   	push   %rbp
  401687:	48 89 e5             	mov    %rsp,%rbp
  40168a:	48 89 7d f8          	mov    %rdi,-0x8(%rbp)
  40168e:	5d                   	pop    %rbp
  40168f:	c3                   	retq   

0000000000401690 <_ZSt16__introsort_loopIN9__gnu_cxx17__normal_iteratorIPiSt6vectorIiSaIiEEEElNS0_5__ops15_Iter_comp_iterISt7greaterIiEEEEvT_SC_T0_T1_>:
  401690:	55                   	push   %rbp
  401691:	48 89 e5             	mov    %rsp,%rbp
  401694:	48 83 ec 30          	sub    $0x30,%rsp
  401698:	48 89 7d e0          	mov    %rdi,-0x20(%rbp)
  40169c:	48 89 75 d0          	mov    %rsi,-0x30(%rbp)
  4016a0:	48 89 55 d8          	mov    %rdx,-0x28(%rbp)
  4016a4:	e9 82 00 00 00       	jmpq   40172b <_ZSt16__introsort_loopIN9__gnu_cxx17__normal_iteratorIPiSt6vectorIiSaIiEEEElNS0_5__ops15_Iter_comp_iterISt7greaterIiEEEEvT_SC_T0_T1_+0x9b>
  4016a9:	48 83 7d d8 00       	cmpq   $0x0,-0x28(%rbp)
  4016ae:	75 26                	jne    4016d6 <_ZSt16__introsort_loopIN9__gnu_cxx17__normal_iteratorIPiSt6vectorIiSaIiEEEElNS0_5__ops15_Iter_comp_iterISt7greaterIiEEEEvT_SC_T0_T1_+0x46>
  4016b0:	48 83 ec 08          	sub    $0x8,%rsp
  4016b4:	48 8b 55 d0          	mov    -0x30(%rbp),%rdx
  4016b8:	48 8b 4d d0          	mov    -0x30(%rbp),%rcx
  4016bc:	48 8b 45 e0          	mov    -0x20(%rbp),%rax
  4016c0:	0f b6 75 10          	movzbl 0x10(%rbp),%esi
  4016c4:	56                   	push   %rsi
  4016c5:	48 89 ce             	mov    %rcx,%rsi
  4016c8:	48 89 c7             	mov    %rax,%rdi
  4016cb:	e8 e0 02 00 00       	callq  4019b0 <_ZSt14__partial_sortIN9__gnu_cxx17__normal_iteratorIPiSt6vectorIiSaIiEEEENS0_5__ops15_Iter_comp_iterISt7greaterIiEEEEvT_SC_SC_T0_>
  4016d0:	48 83 c4 10          	add    $0x10,%rsp
  4016d4:	eb 77                	jmp    40174d <_ZSt16__introsort_loopIN9__gnu_cxx17__normal_iteratorIPiSt6vectorIiSaIiEEEElNS0_5__ops15_Iter_comp_iterISt7greaterIiEEEEvT_SC_T0_T1_+0xbd>
  4016d6:	48 83 6d d8 01       	subq   $0x1,-0x28(%rbp)
  4016db:	48 83 ec 08          	sub    $0x8,%rsp
  4016df:	48 8b 55 d0          	mov    -0x30(%rbp),%rdx
  4016e3:	48 8b 45 e0          	mov    -0x20(%rbp),%rax
  4016e7:	0f b6 4d 10          	movzbl 0x10(%rbp),%ecx
  4016eb:	51                   	push   %rcx
  4016ec:	48 89 d6             	mov    %rdx,%rsi
  4016ef:	48 89 c7             	mov    %rax,%rdi
  4016f2:	e8 13 03 00 00       	callq  401a0a <_ZSt27__unguarded_partition_pivotIN9__gnu_cxx17__normal_iteratorIPiSt6vectorIiSaIiEEEENS0_5__ops15_Iter_comp_iterISt7greaterIiEEEET_SC_SC_T0_>
  4016f7:	48 83 c4 10          	add    $0x10,%rsp
  4016fb:	48 89 45 f0          	mov    %rax,-0x10(%rbp)
  4016ff:	48 83 ec 08          	sub    $0x8,%rsp
  401703:	48 8b 55 d8          	mov    -0x28(%rbp),%rdx
  401707:	48 8b 4d d0          	mov    -0x30(%rbp),%rcx
  40170b:	48 8b 45 f0          	mov    -0x10(%rbp),%rax
  40170f:	0f b6 75 10          	movzbl 0x10(%rbp),%esi
  401713:	56                   	push   %rsi
  401714:	48 89 ce             	mov    %rcx,%rsi
  401717:	48 89 c7             	mov    %rax,%rdi
  40171a:	e8 71 ff ff ff       	callq  401690 <_ZSt16__introsort_loopIN9__gnu_cxx17__normal_iteratorIPiSt6vectorIiSaIiEEEElNS0_5__ops15_Iter_comp_iterISt7greaterIiEEEEvT_SC_T0_T1_>
  40171f:	48 83 c4 10          	add    $0x10,%rsp
  401723:	48 8b 45 f0          	mov    -0x10(%rbp),%rax
  401727:	48 89 45 d0          	mov    %rax,-0x30(%rbp)
  40172b:	48 8d 55 e0          	lea    -0x20(%rbp),%rdx
  40172f:	48 8d 45 d0          	lea    -0x30(%rbp),%rax
  401733:	48 89 d6             	mov    %rdx,%rsi
  401736:	48 89 c7             	mov    %rax,%rdi
  401739:	e8 7b fe ff ff       	callq  4015b9 <_ZN9__gnu_cxxmiIPiSt6vectorIiSaIiEEEENS_17__normal_iteratorIT_T0_E15difference_typeERKS8_SB_>
  40173e:	48 83 f8 10          	cmp    $0x10,%rax
  401742:	0f 9f c0             	setg   %al
  401745:	84 c0                	test   %al,%al
  401747:	0f 85 5c ff ff ff    	jne    4016a9 <_ZSt16__introsort_loopIN9__gnu_cxx17__normal_iteratorIPiSt6vectorIiSaIiEEEElNS0_5__ops15_Iter_comp_iterISt7greaterIiEEEEvT_SC_T0_T1_+0x19>
  40174d:	c9                   	leaveq 
  40174e:	c3                   	retq   

000000000040174f <_ZSt22__final_insertion_sortIN9__gnu_cxx17__normal_iteratorIPiSt6vectorIiSaIiEEEENS0_5__ops15_Iter_comp_iterISt7greaterIiEEEEvT_SC_T0_>:
  40174f:	55                   	push   %rbp
  401750:	48 89 e5             	mov    %rsp,%rbp
  401753:	48 83 ec 20          	sub    $0x20,%rsp
  401757:	48 89 7d f0          	mov    %rdi,-0x10(%rbp)
  40175b:	48 89 75 e0          	mov    %rsi,-0x20(%rbp)
  40175f:	48 8d 55 f0          	lea    -0x10(%rbp),%rdx
  401763:	48 8d 45 e0          	lea    -0x20(%rbp),%rax
  401767:	48 89 d6             	mov    %rdx,%rsi
  40176a:	48 89 c7             	mov    %rax,%rdi
  40176d:	e8 47 fe ff ff       	callq  4015b9 <_ZN9__gnu_cxxmiIPiSt6vectorIiSaIiEEEENS_17__normal_iteratorIT_T0_E15difference_typeERKS8_SB_>
  401772:	48 83 f8 10          	cmp    $0x10,%rax
  401776:	0f 9f c0             	setg   %al
  401779:	84 c0                	test   %al,%al
  40177b:	74 62                	je     4017df <_ZSt22__final_insertion_sortIN9__gnu_cxx17__normal_iteratorIPiSt6vectorIiSaIiEEEENS0_5__ops15_Iter_comp_iterISt7greaterIiEEEEvT_SC_T0_+0x90>
  40177d:	48 8d 45 f0          	lea    -0x10(%rbp),%rax
  401781:	be 10 00 00 00       	mov    $0x10,%esi
  401786:	48 89 c7             	mov    %rax,%rdi
  401789:	e8 42 03 00 00       	callq  401ad0 <_ZNK9__gnu_cxx17__normal_iteratorIPiSt6vectorIiSaIiEEEplEl>
  40178e:	48 89 c1             	mov    %rax,%rcx
  401791:	48 83 ec 08          	sub    $0x8,%rsp
  401795:	48 8b 45 f0          	mov    -0x10(%rbp),%rax
  401799:	0f b6 55 10          	movzbl 0x10(%rbp),%edx
  40179d:	52                   	push   %rdx
  40179e:	48 89 ce             	mov    %rcx,%rsi
  4017a1:	48 89 c7             	mov    %rax,%rdi
  4017a4:	e8 66 03 00 00       	callq  401b0f <_ZSt16__insertion_sortIN9__gnu_cxx17__normal_iteratorIPiSt6vectorIiSaIiEEEENS0_5__ops15_Iter_comp_iterISt7greaterIiEEEEvT_SC_T0_>
  4017a9:	48 83 c4 10          	add    $0x10,%rsp
  4017ad:	48 8d 45 f0          	lea    -0x10(%rbp),%rax
  4017b1:	be 10 00 00 00       	mov    $0x10,%esi
  4017b6:	48 89 c7             	mov    %rax,%rdi
  4017b9:	e8 12 03 00 00       	callq  401ad0 <_ZNK9__gnu_cxx17__normal_iteratorIPiSt6vectorIiSaIiEEEplEl>
  4017be:	48 89 c1             	mov    %rax,%rcx
  4017c1:	48 83 ec 08          	sub    $0x8,%rsp
  4017c5:	48 8b 45 e0          	mov    -0x20(%rbp),%rax
  4017c9:	0f b6 55 10          	movzbl 0x10(%rbp),%edx
  4017cd:	52                   	push   %rdx
  4017ce:	48 89 c6             	mov    %rax,%rsi
  4017d1:	48 89 cf             	mov    %rcx,%rdi
  4017d4:	e8 37 04 00 00       	callq  401c10 <_ZSt26__unguarded_insertion_sortIN9__gnu_cxx17__normal_iteratorIPiSt6vectorIiSaIiEEEENS0_5__ops15_Iter_comp_iterISt7greaterIiEEEEvT_SC_T0_>
  4017d9:	48 83 c4 10          	add    $0x10,%rsp
  4017dd:	eb 20                	jmp    4017ff <_ZSt22__final_insertion_sortIN9__gnu_cxx17__normal_iteratorIPiSt6vectorIiSaIiEEEENS0_5__ops15_Iter_comp_iterISt7greaterIiEEEEvT_SC_T0_+0xb0>
  4017df:	48 83 ec 08          	sub    $0x8,%rsp
  4017e3:	48 8b 55 e0          	mov    -0x20(%rbp),%rdx
  4017e7:	48 8b 45 f0          	mov    -0x10(%rbp),%rax
  4017eb:	0f b6 4d 10          	movzbl 0x10(%rbp),%ecx
  4017ef:	51                   	push   %rcx
  4017f0:	48 89 d6             	mov    %rdx,%rsi
  4017f3:	48 89 c7             	mov    %rax,%rdi
  4017f6:	e8 14 03 00 00       	callq  401b0f <_ZSt16__insertion_sortIN9__gnu_cxx17__normal_iteratorIPiSt6vectorIiSaIiEEEENS0_5__ops15_Iter_comp_iterISt7greaterIiEEEEvT_SC_T0_>
  4017fb:	48 83 c4 10          	add    $0x10,%rsp
  4017ff:	c9                   	leaveq 
  401800:	c3                   	retq   
  401801:	90                   	nop

0000000000401802 <_ZNSaIiEC1Ev>:
  401802:	55                   	push   %rbp
  401803:	48 89 e5             	mov    %rsp,%rbp
  401806:	48 83 ec 10          	sub    $0x10,%rsp
  40180a:	48 89 7d f8          	mov    %rdi,-0x8(%rbp)
  40180e:	48 8b 45 f8          	mov    -0x8(%rbp),%rax
  401812:	48 89 c7             	mov    %rax,%rdi
  401815:	e8 62 04 00 00       	callq  401c7c <_ZN9__gnu_cxx13new_allocatorIiEC1Ev>
  40181a:	c9                   	leaveq 
  40181b:	c3                   	retq   

000000000040181c <_ZN9__gnu_cxx13new_allocatorIiED1Ev>:
  40181c:	55                   	push   %rbp
  40181d:	48 89 e5             	mov    %rsp,%rbp
  401820:	48 89 7d f8          	mov    %rdi,-0x8(%rbp)
  401824:	5d                   	pop    %rbp
  401825:	c3                   	retq   

0000000000401826 <_ZN9__gnu_cxx14__alloc_traitsISaIiEE10deallocateERS1_Pim>:
  401826:	55                   	push   %rbp
  401827:	48 89 e5             	mov    %rsp,%rbp
  40182a:	48 83 ec 20          	sub    $0x20,%rsp
  40182e:	48 89 7d f8          	mov    %rdi,-0x8(%rbp)
  401832:	48 89 75 f0          	mov    %rsi,-0x10(%rbp)
  401836:	48 89 55 e8          	mov    %rdx,-0x18(%rbp)
  40183a:	48 8b 55 e8          	mov    -0x18(%rbp),%rdx
  40183e:	48 8b 4d f0          	mov    -0x10(%rbp),%rcx
  401842:	48 8b 45 f8          	mov    -0x8(%rbp),%rax
  401846:	48 89 ce             	mov    %rcx,%rsi
  401849:	48 89 c7             	mov    %rax,%rdi
  40184c:	e8 35 04 00 00       	callq  401c86 <_ZN9__gnu_cxx13new_allocatorIiE10deallocateEPim>
  401851:	c9                   	leaveq 
  401852:	c3                   	retq   

0000000000401853 <_ZNSt12_Destroy_auxILb1EE9__destroyIPiEEvT_S3_>:
  401853:	55                   	push   %rbp
  401854:	48 89 e5             	mov    %rsp,%rbp
  401857:	48 89 7d f8          	mov    %rdi,-0x8(%rbp)
  40185b:	48 89 75 f0          	mov    %rsi,-0x10(%rbp)
  40185f:	5d                   	pop    %rbp
  401860:	c3                   	retq   

0000000000401861 <_ZSt12__miter_baseIPiENSt11_Miter_baseIT_E13iterator_typeES2_>:
  401861:	55                   	push   %rbp
  401862:	48 89 e5             	mov    %rsp,%rbp
  401865:	48 83 ec 10          	sub    $0x10,%rsp
  401869:	48 89 7d f8          	mov    %rdi,-0x8(%rbp)
  40186d:	48 8b 45 f8          	mov    -0x8(%rbp),%rax
  401871:	48 89 c7             	mov    %rax,%rdi
  401874:	e8 2f 04 00 00       	callq  401ca8 <_ZNSt10_Iter_baseIPiLb0EE7_S_baseES0_>
  401879:	c9                   	leaveq 
  40187a:	c3                   	retq   

000000000040187b <_ZSt23__copy_move_backward_a2ILb0EPiS0_ET1_T0_S2_S1_>:
  40187b:	55                   	push   %rbp
  40187c:	48 89 e5             	mov    %rsp,%rbp
  40187f:	41 54                	push   %r12
  401881:	53                   	push   %rbx
  401882:	48 83 ec 20          	sub    $0x20,%rsp
  401886:	48 89 7d e8          	mov    %rdi,-0x18(%rbp)
  40188a:	48 89 75 e0          	mov    %rsi,-0x20(%rbp)
  40188e:	48 89 55 d8          	mov    %rdx,-0x28(%rbp)
  401892:	48 8b 45 d8          	mov    -0x28(%rbp),%rax
  401896:	48 89 c7             	mov    %rax,%rdi
  401899:	e8 18 04 00 00       	callq  401cb6 <_ZSt12__niter_baseIPiENSt11_Niter_baseIT_E13iterator_typeES2_>
  40189e:	49 89 c4             	mov    %rax,%r12
  4018a1:	48 8b 45 e0          	mov    -0x20(%rbp),%rax
  4018a5:	48 89 c7             	mov    %rax,%rdi
  4018a8:	e8 09 04 00 00       	callq  401cb6 <_ZSt12__niter_baseIPiENSt11_Niter_baseIT_E13iterator_typeES2_>
  4018ad:	48 89 c3             	mov    %rax,%rbx
  4018b0:	48 8b 45 e8          	mov    -0x18(%rbp),%rax
  4018b4:	48 89 c7             	mov    %rax,%rdi
  4018b7:	e8 fa 03 00 00       	callq  401cb6 <_ZSt12__niter_baseIPiENSt11_Niter_baseIT_E13iterator_typeES2_>
  4018bc:	4c 89 e2             	mov    %r12,%rdx
  4018bf:	48 89 de             	mov    %rbx,%rsi
  4018c2:	48 89 c7             	mov    %rax,%rdi
  4018c5:	e8 06 04 00 00       	callq  401cd0 <_ZSt22__copy_move_backward_aILb0EPiS0_ET1_T0_S2_S1_>
  4018ca:	48 83 c4 20          	add    $0x20,%rsp
  4018ce:	5b                   	pop    %rbx
  4018cf:	41 5c                	pop    %r12
  4018d1:	5d                   	pop    %rbp
  4018d2:	c3                   	retq   
  4018d3:	90                   	nop

00000000004018d4 <_ZNKSt6vectorIiSaIiEE4sizeEv>:
  4018d4:	55                   	push   %rbp
  4018d5:	48 89 e5             	mov    %rsp,%rbp
  4018d8:	48 89 7d f8          	mov    %rdi,-0x8(%rbp)
  4018dc:	48 8b 45 f8          	mov    -0x8(%rbp),%rax
  4018e0:	48 8b 40 08          	mov    0x8(%rax),%rax
  4018e4:	48 89 c2             	mov    %rax,%rdx
  4018e7:	48 8b 45 f8          	mov    -0x8(%rbp),%rax
  4018eb:	48 8b 00             	mov    (%rax),%rax
  4018ee:	48 29 c2             	sub    %rax,%rdx
  4018f1:	48 89 d0             	mov    %rdx,%rax
  4018f4:	48 c1 f8 02          	sar    $0x2,%rax
  4018f8:	5d                   	pop    %rbp
  4018f9:	c3                   	retq   

00000000004018fa <_ZNKSt6vectorIiSaIiEE8max_sizeEv>:
  4018fa:	55                   	push   %rbp
  4018fb:	48 89 e5             	mov    %rsp,%rbp
  4018fe:	48 83 ec 10          	sub    $0x10,%rsp
  401902:	48 89 7d f8          	mov    %rdi,-0x8(%rbp)
  401906:	48 8b 45 f8          	mov    -0x8(%rbp),%rax
  40190a:	48 89 c7             	mov    %rax,%rdi
  40190d:	e8 0a 04 00 00       	callq  401d1c <_ZNKSt12_Vector_baseIiSaIiEE19_M_get_Tp_allocatorEv>
  401912:	48 89 c7             	mov    %rax,%rdi
  401915:	e8 e7 03 00 00       	callq  401d01 <_ZN9__gnu_cxx14__alloc_traitsISaIiEE8max_sizeERKS1_>
  40191a:	c9                   	leaveq 
  40191b:	c3                   	retq   

000000000040191c <_ZSt3maxImERKT_S2_S2_>:
  40191c:	55                   	push   %rbp
  40191d:	48 89 e5             	mov    %rsp,%rbp
  401920:	48 89 7d f8          	mov    %rdi,-0x8(%rbp)
  401924:	48 89 75 f0          	mov    %rsi,-0x10(%rbp)
  401928:	48 8b 45 f8          	mov    -0x8(%rbp),%rax
  40192c:	48 8b 10             	mov    (%rax),%rdx
  40192f:	48 8b 45 f0          	mov    -0x10(%rbp),%rax
  401933:	48 8b 00             	mov    (%rax),%rax
  401936:	48 39 c2             	cmp    %rax,%rdx
  401939:	73 06                	jae    401941 <_ZSt3maxImERKT_S2_S2_+0x25>
  40193b:	48 8b 45 f0          	mov    -0x10(%rbp),%rax
  40193f:	eb 04                	jmp    401945 <_ZSt3maxImERKT_S2_S2_+0x29>
  401941:	48 8b 45 f8          	mov    -0x8(%rbp),%rax
  401945:	5d                   	pop    %rbp
  401946:	c3                   	retq   

0000000000401947 <_ZN9__gnu_cxx14__alloc_traitsISaIiEE8allocateERS1_m>:
  401947:	55                   	push   %rbp
  401948:	48 89 e5             	mov    %rsp,%rbp
  40194b:	48 83 ec 10          	sub    $0x10,%rsp
  40194f:	48 89 7d f8          	mov    %rdi,-0x8(%rbp)
  401953:	48 89 75 f0          	mov    %rsi,-0x10(%rbp)
  401957:	48 8b 4d f0          	mov    -0x10(%rbp),%rcx
  40195b:	48 8b 45 f8          	mov    -0x8(%rbp),%rax
  40195f:	ba 00 00 00 00       	mov    $0x0,%edx
  401964:	48 89 ce             	mov    %rcx,%rsi
  401967:	48 89 c7             	mov    %rax,%rdi
  40196a:	e8 bb 03 00 00       	callq  401d2a <_ZN9__gnu_cxx13new_allocatorIiE8allocateEmPKv>
  40196f:	c9                   	leaveq 
  401970:	c3                   	retq   

0000000000401971 <_ZSt22__uninitialized_copy_aIPiS0_iET0_T_S2_S1_RSaIT1_E>:
  401971:	55                   	push   %rbp
  401972:	48 89 e5             	mov    %rsp,%rbp
  401975:	48 83 ec 20          	sub    $0x20,%rsp
  401979:	48 89 7d f8          	mov    %rdi,-0x8(%rbp)
  40197d:	48 89 75 f0          	mov    %rsi,-0x10(%rbp)
  401981:	48 89 55 e8          	mov    %rdx,-0x18(%rbp)
  401985:	48 89 4d e0          	mov    %rcx,-0x20(%rbp)
  401989:	48 8b 55 e8          	mov    -0x18(%rbp),%rdx
  40198d:	48 8b 4d f0          	mov    -0x10(%rbp),%rcx
  401991:	48 8b 45 f8          	mov    -0x8(%rbp),%rax
  401995:	48 89 ce             	mov    %rcx,%rsi
  401998:	48 89 c7             	mov    %rax,%rdi
  40199b:	e8 cc 03 00 00       	callq  401d6c <_ZSt18uninitialized_copyIPiS0_ET0_T_S2_S1_>
  4019a0:	c9                   	leaveq 
  4019a1:	c3                   	retq   

00000000004019a2 <_ZN9__gnu_cxx13new_allocatorIiE7destroyEPi>:
  4019a2:	55                   	push   %rbp
  4019a3:	48 89 e5             	mov    %rsp,%rbp
  4019a6:	48 89 7d f8          	mov    %rdi,-0x8(%rbp)
  4019aa:	48 89 75 f0          	mov    %rsi,-0x10(%rbp)
  4019ae:	5d                   	pop    %rbp
  4019af:	c3                   	retq   

00000000004019b0 <_ZSt14__partial_sortIN9__gnu_cxx17__normal_iteratorIPiSt6vectorIiSaIiEEEENS0_5__ops15_Iter_comp_iterISt7greaterIiEEEEvT_SC_SC_T0_>:
  4019b0:	55                   	push   %rbp
  4019b1:	48 89 e5             	mov    %rsp,%rbp
  4019b4:	48 83 ec 30          	sub    $0x30,%rsp
  4019b8:	48 89 7d f0          	mov    %rdi,-0x10(%rbp)
  4019bc:	48 89 75 e0          	mov    %rsi,-0x20(%rbp)
  4019c0:	48 89 55 d0          	mov    %rdx,-0x30(%rbp)
  4019c4:	48 83 ec 08          	sub    $0x8,%rsp
  4019c8:	48 8b 55 d0          	mov    -0x30(%rbp),%rdx
  4019cc:	48 8b 4d e0          	mov    -0x20(%rbp),%rcx
  4019d0:	48 8b 45 f0          	mov    -0x10(%rbp),%rax
  4019d4:	0f b6 75 10          	movzbl 0x10(%rbp),%esi
  4019d8:	56                   	push   %rsi
  4019d9:	48 89 ce             	mov    %rcx,%rsi
  4019dc:	48 89 c7             	mov    %rax,%rdi
  4019df:	e8 b9 03 00 00       	callq  401d9d <_ZSt13__heap_selectIN9__gnu_cxx17__normal_iteratorIPiSt6vectorIiSaIiEEEENS0_5__ops15_Iter_comp_iterISt7greaterIiEEEEvT_SC_SC_T0_>
  4019e4:	48 83 c4 10          	add    $0x10,%rsp
  4019e8:	48 83 ec 08          	sub    $0x8,%rsp
  4019ec:	48 8b 55 e0          	mov    -0x20(%rbp),%rdx
  4019f0:	48 8b 45 f0          	mov    -0x10(%rbp),%rax
  4019f4:	0f b6 4d 10          	movzbl 0x10(%rbp),%ecx
  4019f8:	51                   	push   %rcx
  4019f9:	48 89 d6             	mov    %rdx,%rsi
  4019fc:	48 89 c7             	mov    %rax,%rdi
  4019ff:	e8 38 04 00 00       	callq  401e3c <_ZSt11__sort_heapIN9__gnu_cxx17__normal_iteratorIPiSt6vectorIiSaIiEEEENS0_5__ops15_Iter_comp_iterISt7greaterIiEEEEvT_SC_T0_>
  401a04:	48 83 c4 10          	add    $0x10,%rsp
  401a08:	c9                   	leaveq 
  401a09:	c3                   	retq   

0000000000401a0a <_ZSt27__unguarded_partition_pivotIN9__gnu_cxx17__normal_iteratorIPiSt6vectorIiSaIiEEEENS0_5__ops15_Iter_comp_iterISt7greaterIiEEEET_SC_SC_T0_>:
  401a0a:	55                   	push   %rbp
  401a0b:	48 89 e5             	mov    %rsp,%rbp
  401a0e:	53                   	push   %rbx
  401a0f:	48 83 ec 38          	sub    $0x38,%rsp
  401a13:	48 89 7d d0          	mov    %rdi,-0x30(%rbp)
  401a17:	48 89 75 c0          	mov    %rsi,-0x40(%rbp)
  401a1b:	48 8d 55 d0          	lea    -0x30(%rbp),%rdx
  401a1f:	48 8d 45 c0          	lea    -0x40(%rbp),%rax
  401a23:	48 89 d6             	mov    %rdx,%rsi
  401a26:	48 89 c7             	mov    %rax,%rdi
  401a29:	e8 8b fb ff ff       	callq  4015b9 <_ZN9__gnu_cxxmiIPiSt6vectorIiSaIiEEEENS_17__normal_iteratorIT_T0_E15difference_typeERKS8_SB_>
  401a2e:	48 89 c2             	mov    %rax,%rdx
  401a31:	48 c1 ea 3f          	shr    $0x3f,%rdx
  401a35:	48 01 d0             	add    %rdx,%rax
  401a38:	48 d1 f8             	sar    %rax
  401a3b:	48 89 c2             	mov    %rax,%rdx
  401a3e:	48 8d 45 d0          	lea    -0x30(%rbp),%rax
  401a42:	48 89 d6             	mov    %rdx,%rsi
  401a45:	48 89 c7             	mov    %rax,%rdi
  401a48:	e8 83 00 00 00       	callq  401ad0 <_ZNK9__gnu_cxx17__normal_iteratorIPiSt6vectorIiSaIiEEEplEl>
  401a4d:	48 89 45 e0          	mov    %rax,-0x20(%rbp)
  401a51:	48 8d 45 c0          	lea    -0x40(%rbp),%rax
  401a55:	be 01 00 00 00       	mov    $0x1,%esi
  401a5a:	48 89 c7             	mov    %rax,%rdi
  401a5d:	e8 3c 04 00 00       	callq  401e9e <_ZNK9__gnu_cxx17__normal_iteratorIPiSt6vectorIiSaIiEEEmiEl>
  401a62:	48 89 c3             	mov    %rax,%rbx
  401a65:	48 8d 45 d0          	lea    -0x30(%rbp),%rax
  401a69:	be 01 00 00 00       	mov    $0x1,%esi
  401a6e:	48 89 c7             	mov    %rax,%rdi
  401a71:	e8 5a 00 00 00       	callq  401ad0 <_ZNK9__gnu_cxx17__normal_iteratorIPiSt6vectorIiSaIiEEEplEl>
  401a76:	48 89 c6             	mov    %rax,%rsi
  401a79:	48 83 ec 08          	sub    $0x8,%rsp
  401a7d:	48 8b 55 e0          	mov    -0x20(%rbp),%rdx
  401a81:	48 8b 45 d0          	mov    -0x30(%rbp),%rax
  401a85:	0f b6 4d 10          	movzbl 0x10(%rbp),%ecx
  401a89:	51                   	push   %rcx
  401a8a:	48 89 d9             	mov    %rbx,%rcx
  401a8d:	48 89 c7             	mov    %rax,%rdi
  401a90:	e8 4b 04 00 00       	callq  401ee0 <_ZSt22__move_median_to_firstIN9__gnu_cxx17__normal_iteratorIPiSt6vectorIiSaIiEEEENS0_5__ops15_Iter_comp_iterISt7greaterIiEEEEvT_SC_SC_SC_T0_>
  401a95:	48 83 c4 10          	add    $0x10,%rsp
  401a99:	48 8d 45 d0          	lea    -0x30(%rbp),%rax
  401a9d:	be 01 00 00 00       	mov    $0x1,%esi
  401aa2:	48 89 c7             	mov    %rax,%rdi
  401aa5:	e8 26 00 00 00       	callq  401ad0 <_ZNK9__gnu_cxx17__normal_iteratorIPiSt6vectorIiSaIiEEEplEl>
  401aaa:	48 89 c7             	mov    %rax,%rdi
  401aad:	48 83 ec 08          	sub    $0x8,%rsp
  401ab1:	48 8b 55 d0          	mov    -0x30(%rbp),%rdx
  401ab5:	48 8b 45 c0          	mov    -0x40(%rbp),%rax
  401ab9:	0f b6 4d 10          	movzbl 0x10(%rbp),%ecx
  401abd:	51                   	push   %rcx
  401abe:	48 89 c6             	mov    %rax,%rsi
  401ac1:	e8 2e 05 00 00       	callq  401ff4 <_ZSt21__unguarded_partitionIN9__gnu_cxx17__normal_iteratorIPiSt6vectorIiSaIiEEEENS0_5__ops15_Iter_comp_iterISt7greaterIiEEEET_SC_SC_SC_T0_>
  401ac6:	48 83 c4 10          	add    $0x10,%rsp
  401aca:	48 8b 5d f8          	mov    -0x8(%rbp),%rbx
  401ace:	c9                   	leaveq 
  401acf:	c3                   	retq   

0000000000401ad0 <_ZNK9__gnu_cxx17__normal_iteratorIPiSt6vectorIiSaIiEEEplEl>:
  401ad0:	55                   	push   %rbp
  401ad1:	48 89 e5             	mov    %rsp,%rbp
  401ad4:	48 83 ec 20          	sub    $0x20,%rsp
  401ad8:	48 89 7d e8          	mov    %rdi,-0x18(%rbp)
  401adc:	48 89 75 e0          	mov    %rsi,-0x20(%rbp)
  401ae0:	48 8b 45 e8          	mov    -0x18(%rbp),%rax
  401ae4:	48 8b 00             	mov    (%rax),%rax
  401ae7:	48 8b 55 e0          	mov    -0x20(%rbp),%rdx
  401aeb:	48 c1 e2 02          	shl    $0x2,%rdx
  401aef:	48 01 d0             	add    %rdx,%rax
  401af2:	48 89 45 f8          	mov    %rax,-0x8(%rbp)
  401af6:	48 8d 55 f8          	lea    -0x8(%rbp),%rdx
  401afa:	48 8d 45 f0          	lea    -0x10(%rbp),%rax
  401afe:	48 89 d6             	mov    %rdx,%rsi
  401b01:	48 89 c7             	mov    %rax,%rdi
  401b04:	e8 d9 f7 ff ff       	callq  4012e2 <_ZN9__gnu_cxx17__normal_iteratorIPiSt6vectorIiSaIiEEEC1ERKS1_>
  401b09:	48 8b 45 f0          	mov    -0x10(%rbp),%rax
  401b0d:	c9                   	leaveq 
  401b0e:	c3                   	retq   

0000000000401b0f <_ZSt16__insertion_sortIN9__gnu_cxx17__normal_iteratorIPiSt6vectorIiSaIiEEEENS0_5__ops15_Iter_comp_iterISt7greaterIiEEEEvT_SC_T0_>:
  401b0f:	55                   	push   %rbp
  401b10:	48 89 e5             	mov    %rsp,%rbp
  401b13:	53                   	push   %rbx
  401b14:	48 83 ec 38          	sub    $0x38,%rsp
  401b18:	48 89 7d d0          	mov    %rdi,-0x30(%rbp)
  401b1c:	48 89 75 c0          	mov    %rsi,-0x40(%rbp)
  401b20:	48 8d 55 c0          	lea    -0x40(%rbp),%rdx
  401b24:	48 8d 45 d0          	lea    -0x30(%rbp),%rax
  401b28:	48 89 d6             	mov    %rdx,%rsi
  401b2b:	48 89 c7             	mov    %rax,%rdi
  401b2e:	e8 73 05 00 00       	callq  4020a6 <_ZN9__gnu_cxxeqIPiSt6vectorIiSaIiEEEEbRKNS_17__normal_iteratorIT_T0_EESA_>
  401b33:	84 c0                	test   %al,%al
  401b35:	74 05                	je     401b3c <_ZSt16__insertion_sortIN9__gnu_cxx17__normal_iteratorIPiSt6vectorIiSaIiEEEENS0_5__ops15_Iter_comp_iterISt7greaterIiEEEEvT_SC_T0_+0x2d>
  401b37:	e9 ce 00 00 00       	jmpq   401c0a <_ZSt16__insertion_sortIN9__gnu_cxx17__normal_iteratorIPiSt6vectorIiSaIiEEEENS0_5__ops15_Iter_comp_iterISt7greaterIiEEEEvT_SC_T0_+0xfb>
  401b3c:	48 8d 45 d0          	lea    -0x30(%rbp),%rax
  401b40:	be 01 00 00 00       	mov    $0x1,%esi
  401b45:	48 89 c7             	mov    %rax,%rdi
  401b48:	e8 83 ff ff ff       	callq  401ad0 <_ZNK9__gnu_cxx17__normal_iteratorIPiSt6vectorIiSaIiEEEplEl>
  401b4d:	48 89 45 e0          	mov    %rax,-0x20(%rbp)
  401b51:	e9 99 00 00 00       	jmpq   401bef <_ZSt16__insertion_sortIN9__gnu_cxx17__normal_iteratorIPiSt6vectorIiSaIiEEEENS0_5__ops15_Iter_comp_iterISt7greaterIiEEEEvT_SC_T0_+0xe0>
  401b56:	48 8b 55 d0          	mov    -0x30(%rbp),%rdx
  401b5a:	48 8b 45 e0          	mov    -0x20(%rbp),%rax
  401b5e:	48 89 c6             	mov    %rax,%rsi
  401b61:	48 8d 7d 10          	lea    0x10(%rbp),%rdi
  401b65:	e8 98 05 00 00       	callq  402102 <_ZN9__gnu_cxx5__ops15_Iter_comp_iterISt7greaterIiEEclINS_17__normal_iteratorIPiSt6vectorIiSaIiEEEESB_EEbT_T0_>
  401b6a:	84 c0                	test   %al,%al
  401b6c:	74 4e                	je     401bbc <_ZSt16__insertion_sortIN9__gnu_cxx17__normal_iteratorIPiSt6vectorIiSaIiEEEENS0_5__ops15_Iter_comp_iterISt7greaterIiEEEEvT_SC_T0_+0xad>
  401b6e:	48 8d 45 e0          	lea    -0x20(%rbp),%rax
  401b72:	48 89 c7             	mov    %rax,%rdi
  401b75:	e8 64 f3 ff ff       	callq  400ede <_ZNK9__gnu_cxx17__normal_iteratorIPiSt6vectorIiSaIiEEEdeEv>
  401b7a:	8b 00                	mov    (%rax),%eax
  401b7c:	89 45 ec             	mov    %eax,-0x14(%rbp)
  401b7f:	48 8d 45 e0          	lea    -0x20(%rbp),%rax
  401b83:	be 01 00 00 00       	mov    $0x1,%esi
  401b88:	48 89 c7             	mov    %rax,%rdi
  401b8b:	e8 40 ff ff ff       	callq  401ad0 <_ZNK9__gnu_cxx17__normal_iteratorIPiSt6vectorIiSaIiEEEplEl>
  401b90:	48 89 c2             	mov    %rax,%rdx
  401b93:	48 8b 4d e0          	mov    -0x20(%rbp),%rcx
  401b97:	48 8b 45 d0          	mov    -0x30(%rbp),%rax
  401b9b:	48 89 ce             	mov    %rcx,%rsi
  401b9e:	48 89 c7             	mov    %rax,%rdi
  401ba1:	e8 a8 05 00 00       	callq  40214e <_ZSt13copy_backwardIN9__gnu_cxx17__normal_iteratorIPiSt6vectorIiSaIiEEEES6_ET0_T_S8_S7_>
  401ba6:	48 8d 45 d0          	lea    -0x30(%rbp),%rax
  401baa:	48 89 c7             	mov    %rax,%rdi
  401bad:	e8 2c f3 ff ff       	callq  400ede <_ZNK9__gnu_cxx17__normal_iteratorIPiSt6vectorIiSaIiEEEdeEv>
  401bb2:	48 89 c2             	mov    %rax,%rdx
  401bb5:	8b 45 ec             	mov    -0x14(%rbp),%eax
  401bb8:	89 02                	mov    %eax,(%rdx)
  401bba:	eb 27                	jmp    401be3 <_ZSt16__insertion_sortIN9__gnu_cxx17__normal_iteratorIPiSt6vectorIiSaIiEEEENS0_5__ops15_Iter_comp_iterISt7greaterIiEEEEvT_SC_T0_+0xd4>
  401bbc:	48 83 ec 08          	sub    $0x8,%rsp
  401bc0:	0f b6 45 10          	movzbl 0x10(%rbp),%eax
  401bc4:	50                   	push   %rax
  401bc5:	e8 d0 05 00 00       	callq  40219a <_ZN9__gnu_cxx5__ops15__val_comp_iterISt7greaterIiEEENS0_14_Val_comp_iterIT_EENS0_15_Iter_comp_iterIS5_EE>
  401bca:	48 83 c4 10          	add    $0x10,%rsp
  401bce:	48 83 ec 08          	sub    $0x8,%rsp
  401bd2:	48 8b 45 e0          	mov    -0x20(%rbp),%rax
  401bd6:	53                   	push   %rbx
  401bd7:	48 89 c7             	mov    %rax,%rdi
  401bda:	e8 e1 05 00 00       	callq  4021c0 <_ZSt25__unguarded_linear_insertIN9__gnu_cxx17__normal_iteratorIPiSt6vectorIiSaIiEEEENS0_5__ops14_Val_comp_iterISt7greaterIiEEEEvT_T0_>
  401bdf:	48 83 c4 10          	add    $0x10,%rsp
  401be3:	48 8d 45 e0          	lea    -0x20(%rbp),%rax
  401be7:	48 89 c7             	mov    %rax,%rdi
  401bea:	e8 f3 04 00 00       	callq  4020e2 <_ZN9__gnu_cxx17__normal_iteratorIPiSt6vectorIiSaIiEEEppEv>
  401bef:	48 8d 55 c0          	lea    -0x40(%rbp),%rdx
  401bf3:	48 8d 45 e0          	lea    -0x20(%rbp),%rax
  401bf7:	48 89 d6             	mov    %rdx,%rsi
  401bfa:	48 89 c7             	mov    %rax,%rdi
  401bfd:	e8 a0 f2 ff ff       	callq  400ea2 <_ZN9__gnu_cxxneIPiSt6vectorIiSaIiEEEEbRKNS_17__normal_iteratorIT_T0_EESA_>
  401c02:	84 c0                	test   %al,%al
  401c04:	0f 85 4c ff ff ff    	jne    401b56 <_ZSt16__insertion_sortIN9__gnu_cxx17__normal_iteratorIPiSt6vectorIiSaIiEEEENS0_5__ops15_Iter_comp_iterISt7greaterIiEEEEvT_SC_T0_+0x47>
  401c0a:	48 8b 5d f8          	mov    -0x8(%rbp),%rbx
  401c0e:	c9                   	leaveq 
  401c0f:	c3                   	retq   

0000000000401c10 <_ZSt26__unguarded_insertion_sortIN9__gnu_cxx17__normal_iteratorIPiSt6vectorIiSaIiEEEENS0_5__ops15_Iter_comp_iterISt7greaterIiEEEEvT_SC_T0_>:
  401c10:	55                   	push   %rbp
  401c11:	48 89 e5             	mov    %rsp,%rbp
  401c14:	53                   	push   %rbx
  401c15:	48 83 ec 38          	sub    $0x38,%rsp
  401c19:	48 89 7d d0          	mov    %rdi,-0x30(%rbp)
  401c1d:	48 89 75 c0          	mov    %rsi,-0x40(%rbp)
  401c21:	48 8b 45 d0          	mov    -0x30(%rbp),%rax
  401c25:	48 89 45 e0          	mov    %rax,-0x20(%rbp)
  401c29:	eb 33                	jmp    401c5e <_ZSt26__unguarded_insertion_sortIN9__gnu_cxx17__normal_iteratorIPiSt6vectorIiSaIiEEEENS0_5__ops15_Iter_comp_iterISt7greaterIiEEEEvT_SC_T0_+0x4e>
  401c2b:	48 83 ec 08          	sub    $0x8,%rsp
  401c2f:	0f b6 45 10          	movzbl 0x10(%rbp),%eax
  401c33:	50                   	push   %rax
  401c34:	e8 61 05 00 00       	callq  40219a <_ZN9__gnu_cxx5__ops15__val_comp_iterISt7greaterIiEEENS0_14_Val_comp_iterIT_EENS0_15_Iter_comp_iterIS5_EE>
  401c39:	48 83 c4 10          	add    $0x10,%rsp
  401c3d:	48 83 ec 08          	sub    $0x8,%rsp
  401c41:	48 8b 45 e0          	mov    -0x20(%rbp),%rax
  401c45:	53                   	push   %rbx
  401c46:	48 89 c7             	mov    %rax,%rdi
  401c49:	e8 72 05 00 00       	callq  4021c0 <_ZSt25__unguarded_linear_insertIN9__gnu_cxx17__normal_iteratorIPiSt6vectorIiSaIiEEEENS0_5__ops14_Val_comp_iterISt7greaterIiEEEEvT_T0_>
  401c4e:	48 83 c4 10          	add    $0x10,%rsp
  401c52:	48 8d 45 e0          	lea    -0x20(%rbp),%rax
  401c56:	48 89 c7             	mov    %rax,%rdi
  401c59:	e8 84 04 00 00       	callq  4020e2 <_ZN9__gnu_cxx17__normal_iteratorIPiSt6vectorIiSaIiEEEppEv>
  401c5e:	48 8d 55 c0          	lea    -0x40(%rbp),%rdx
  401c62:	48 8d 45 e0          	lea    -0x20(%rbp),%rax
  401c66:	48 89 d6             	mov    %rdx,%rsi
  401c69:	48 89 c7             	mov    %rax,%rdi
  401c6c:	e8 31 f2 ff ff       	callq  400ea2 <_ZN9__gnu_cxxneIPiSt6vectorIiSaIiEEEEbRKNS_17__normal_iteratorIT_T0_EESA_>
  401c71:	84 c0                	test   %al,%al
  401c73:	75 b6                	jne    401c2b <_ZSt26__unguarded_insertion_sortIN9__gnu_cxx17__normal_iteratorIPiSt6vectorIiSaIiEEEENS0_5__ops15_Iter_comp_iterISt7greaterIiEEEEvT_SC_T0_+0x1b>
  401c75:	48 8b 5d f8          	mov    -0x8(%rbp),%rbx
  401c79:	c9                   	leaveq 
  401c7a:	c3                   	retq   
  401c7b:	90                   	nop

0000000000401c7c <_ZN9__gnu_cxx13new_allocatorIiEC1Ev>:
  401c7c:	55                   	push   %rbp
  401c7d:	48 89 e5             	mov    %rsp,%rbp
  401c80:	48 89 7d f8          	mov    %rdi,-0x8(%rbp)
  401c84:	5d                   	pop    %rbp
  401c85:	c3                   	retq   

0000000000401c86 <_ZN9__gnu_cxx13new_allocatorIiE10deallocateEPim>:
  401c86:	55                   	push   %rbp
  401c87:	48 89 e5             	mov    %rsp,%rbp
  401c8a:	48 83 ec 20          	sub    $0x20,%rsp
  401c8e:	48 89 7d f8          	mov    %rdi,-0x8(%rbp)
  401c92:	48 89 75 f0          	mov    %rsi,-0x10(%rbp)
  401c96:	48 89 55 e8          	mov    %rdx,-0x18(%rbp)
  401c9a:	48 8b 45 f0          	mov    -0x10(%rbp),%rax
  401c9e:	48 89 c7             	mov    %rax,%rdi
  401ca1:	e8 8a eb ff ff       	callq  400830 <_ZdlPv@plt>
  401ca6:	c9                   	leaveq 
  401ca7:	c3                   	retq   

0000000000401ca8 <_ZNSt10_Iter_baseIPiLb0EE7_S_baseES0_>:
  401ca8:	55                   	push   %rbp
  401ca9:	48 89 e5             	mov    %rsp,%rbp
  401cac:	48 89 7d f8          	mov    %rdi,-0x8(%rbp)
  401cb0:	48 8b 45 f8          	mov    -0x8(%rbp),%rax
  401cb4:	5d                   	pop    %rbp
  401cb5:	c3                   	retq   

0000000000401cb6 <_ZSt12__niter_baseIPiENSt11_Niter_baseIT_E13iterator_typeES2_>:
  401cb6:	55                   	push   %rbp
  401cb7:	48 89 e5             	mov    %rsp,%rbp
  401cba:	48 83 ec 10          	sub    $0x10,%rsp
  401cbe:	48 89 7d f8          	mov    %rdi,-0x8(%rbp)
  401cc2:	48 8b 45 f8          	mov    -0x8(%rbp),%rax
  401cc6:	48 89 c7             	mov    %rax,%rdi
  401cc9:	e8 da ff ff ff       	callq  401ca8 <_ZNSt10_Iter_baseIPiLb0EE7_S_baseES0_>
  401cce:	c9                   	leaveq 
  401ccf:	c3                   	retq   

0000000000401cd0 <_ZSt22__copy_move_backward_aILb0EPiS0_ET1_T0_S2_S1_>:
  401cd0:	55                   	push   %rbp
  401cd1:	48 89 e5             	mov    %rsp,%rbp
  401cd4:	48 83 ec 30          	sub    $0x30,%rsp
  401cd8:	48 89 7d e8          	mov    %rdi,-0x18(%rbp)
  401cdc:	48 89 75 e0          	mov    %rsi,-0x20(%rbp)
  401ce0:	48 89 55 d8          	mov    %rdx,-0x28(%rbp)
  401ce4:	c6 45 ff 01          	movb   $0x1,-0x1(%rbp)
  401ce8:	48 8b 55 d8          	mov    -0x28(%rbp),%rdx
  401cec:	48 8b 4d e0          	mov    -0x20(%rbp),%rcx
  401cf0:	48 8b 45 e8          	mov    -0x18(%rbp),%rax
  401cf4:	48 89 ce             	mov    %rcx,%rsi
  401cf7:	48 89 c7             	mov    %rax,%rdi
  401cfa:	e8 5b 05 00 00       	callq  40225a <_ZNSt20__copy_move_backwardILb0ELb1ESt26random_access_iterator_tagE13__copy_move_bIiEEPT_PKS3_S6_S4_>
  401cff:	c9                   	leaveq 
  401d00:	c3                   	retq   

0000000000401d01 <_ZN9__gnu_cxx14__alloc_traitsISaIiEE8max_sizeERKS1_>:
  401d01:	55                   	push   %rbp
  401d02:	48 89 e5             	mov    %rsp,%rbp
  401d05:	48 83 ec 10          	sub    $0x10,%rsp
  401d09:	48 89 7d f8          	mov    %rdi,-0x8(%rbp)
  401d0d:	48 8b 45 f8          	mov    -0x8(%rbp),%rax
  401d11:	48 89 c7             	mov    %rax,%rdi
  401d14:	e8 b9 05 00 00       	callq  4022d2 <_ZNK9__gnu_cxx13new_allocatorIiE8max_sizeEv>
  401d19:	c9                   	leaveq 
  401d1a:	c3                   	retq   
  401d1b:	90                   	nop

0000000000401d1c <_ZNKSt12_Vector_baseIiSaIiEE19_M_get_Tp_allocatorEv>:
  401d1c:	55                   	push   %rbp
  401d1d:	48 89 e5             	mov    %rsp,%rbp
  401d20:	48 89 7d f8          	mov    %rdi,-0x8(%rbp)
  401d24:	48 8b 45 f8          	mov    -0x8(%rbp),%rax
  401d28:	5d                   	pop    %rbp
  401d29:	c3                   	retq   

0000000000401d2a <_ZN9__gnu_cxx13new_allocatorIiE8allocateEmPKv>:
  401d2a:	55                   	push   %rbp
  401d2b:	48 89 e5             	mov    %rsp,%rbp
  401d2e:	48 83 ec 20          	sub    $0x20,%rsp
  401d32:	48 89 7d f8          	mov    %rdi,-0x8(%rbp)
  401d36:	48 89 75 f0          	mov    %rsi,-0x10(%rbp)
  401d3a:	48 89 55 e8          	mov    %rdx,-0x18(%rbp)
  401d3e:	48 8b 45 f8          	mov    -0x8(%rbp),%rax
  401d42:	48 89 c7             	mov    %rax,%rdi
  401d45:	e8 88 05 00 00       	callq  4022d2 <_ZNK9__gnu_cxx13new_allocatorIiE8max_sizeEv>
  401d4a:	48 3b 45 f0          	cmp    -0x10(%rbp),%rax
  401d4e:	0f 92 c0             	setb   %al
  401d51:	84 c0                	test   %al,%al
  401d53:	74 05                	je     401d5a <_ZN9__gnu_cxx13new_allocatorIiE8allocateEmPKv+0x30>
  401d55:	e8 36 eb ff ff       	callq  400890 <_ZSt17__throw_bad_allocv@plt>
  401d5a:	48 8b 45 f0          	mov    -0x10(%rbp),%rax
  401d5e:	48 c1 e0 02          	shl    $0x2,%rax
  401d62:	48 89 c7             	mov    %rax,%rdi
  401d65:	e8 56 eb ff ff       	callq  4008c0 <_Znwm@plt>
  401d6a:	c9                   	leaveq 
  401d6b:	c3                   	retq   

0000000000401d6c <_ZSt18uninitialized_copyIPiS0_ET0_T_S2_S1_>:
  401d6c:	55                   	push   %rbp
  401d6d:	48 89 e5             	mov    %rsp,%rbp
  401d70:	48 83 ec 30          	sub    $0x30,%rsp
  401d74:	48 89 7d e8          	mov    %rdi,-0x18(%rbp)
  401d78:	48 89 75 e0          	mov    %rsi,-0x20(%rbp)
  401d7c:	48 89 55 d8          	mov    %rdx,-0x28(%rbp)
  401d80:	c6 45 ff 01          	movb   $0x1,-0x1(%rbp)
  401d84:	48 8b 55 d8          	mov    -0x28(%rbp),%rdx
  401d88:	48 8b 4d e0          	mov    -0x20(%rbp),%rcx
  401d8c:	48 8b 45 e8          	mov    -0x18(%rbp),%rax
  401d90:	48 89 ce             	mov    %rcx,%rsi
  401d93:	48 89 c7             	mov    %rax,%rdi
  401d96:	e8 4b 05 00 00       	callq  4022e6 <_ZNSt20__uninitialized_copyILb1EE13__uninit_copyIPiS2_EET0_T_S4_S3_>
  401d9b:	c9                   	leaveq 
  401d9c:	c3                   	retq   

0000000000401d9d <_ZSt13__heap_selectIN9__gnu_cxx17__normal_iteratorIPiSt6vectorIiSaIiEEEENS0_5__ops15_Iter_comp_iterISt7greaterIiEEEEvT_SC_SC_T0_>:
  401d9d:	55                   	push   %rbp
  401d9e:	48 89 e5             	mov    %rsp,%rbp
  401da1:	48 83 ec 40          	sub    $0x40,%rsp
  401da5:	48 89 7d e0          	mov    %rdi,-0x20(%rbp)
  401da9:	48 89 75 d0          	mov    %rsi,-0x30(%rbp)
  401dad:	48 89 55 c0          	mov    %rdx,-0x40(%rbp)
  401db1:	48 83 ec 08          	sub    $0x8,%rsp
  401db5:	48 8b 55 d0          	mov    -0x30(%rbp),%rdx
  401db9:	48 8b 45 e0          	mov    -0x20(%rbp),%rax
  401dbd:	0f b6 4d 10          	movzbl 0x10(%rbp),%ecx
  401dc1:	51                   	push   %rcx
  401dc2:	48 89 d6             	mov    %rdx,%rsi
  401dc5:	48 89 c7             	mov    %rax,%rdi
  401dc8:	e8 46 05 00 00       	callq  402313 <_ZSt11__make_heapIN9__gnu_cxx17__normal_iteratorIPiSt6vectorIiSaIiEEEENS0_5__ops15_Iter_comp_iterISt7greaterIiEEEEvT_SC_T0_>
  401dcd:	48 83 c4 10          	add    $0x10,%rsp
  401dd1:	48 8b 45 d0          	mov    -0x30(%rbp),%rax
  401dd5:	48 89 45 f0          	mov    %rax,-0x10(%rbp)
  401dd9:	eb 48                	jmp    401e23 <_ZSt13__heap_selectIN9__gnu_cxx17__normal_iteratorIPiSt6vectorIiSaIiEEEENS0_5__ops15_Iter_comp_iterISt7greaterIiEEEEvT_SC_SC_T0_+0x86>
  401ddb:	48 8b 55 e0          	mov    -0x20(%rbp),%rdx
  401ddf:	48 8b 45 f0          	mov    -0x10(%rbp),%rax
  401de3:	48 89 c6             	mov    %rax,%rsi
  401de6:	48 8d 7d 10          	lea    0x10(%rbp),%rdi
  401dea:	e8 13 03 00 00       	callq  402102 <_ZN9__gnu_cxx5__ops15_Iter_comp_iterISt7greaterIiEEclINS_17__normal_iteratorIPiSt6vectorIiSaIiEEEESB_EEbT_T0_>
  401def:	84 c0                	test   %al,%al
  401df1:	74 24                	je     401e17 <_ZSt13__heap_selectIN9__gnu_cxx17__normal_iteratorIPiSt6vectorIiSaIiEEEENS0_5__ops15_Iter_comp_iterISt7greaterIiEEEEvT_SC_SC_T0_+0x7a>
  401df3:	48 83 ec 08          	sub    $0x8,%rsp
  401df7:	48 8b 55 f0          	mov    -0x10(%rbp),%rdx
  401dfb:	48 8b 4d d0          	mov    -0x30(%rbp),%rcx
  401dff:	48 8b 45 e0          	mov    -0x20(%rbp),%rax
  401e03:	0f b6 75 10          	movzbl 0x10(%rbp),%esi
  401e07:	56                   	push   %rsi
  401e08:	48 89 ce             	mov    %rcx,%rsi
  401e0b:	48 89 c7             	mov    %rax,%rdi
  401e0e:	e8 fd 05 00 00       	callq  402410 <_ZSt10__pop_heapIN9__gnu_cxx17__normal_iteratorIPiSt6vectorIiSaIiEEEENS0_5__ops15_Iter_comp_iterISt7greaterIiEEEEvT_SC_SC_T0_>
  401e13:	48 83 c4 10          	add    $0x10,%rsp
  401e17:	48 8d 45 f0          	lea    -0x10(%rbp),%rax
  401e1b:	48 89 c7             	mov    %rax,%rdi
  401e1e:	e8 bf 02 00 00       	callq  4020e2 <_ZN9__gnu_cxx17__normal_iteratorIPiSt6vectorIiSaIiEEEppEv>
  401e23:	48 8d 55 c0          	lea    -0x40(%rbp),%rdx
  401e27:	48 8d 45 f0          	lea    -0x10(%rbp),%rax
  401e2b:	48 89 d6             	mov    %rdx,%rsi
  401e2e:	48 89 c7             	mov    %rax,%rdi
  401e31:	e8 9e 05 00 00       	callq  4023d4 <_ZN9__gnu_cxxltIPiSt6vectorIiSaIiEEEEbRKNS_17__normal_iteratorIT_T0_EESA_>
  401e36:	84 c0                	test   %al,%al
  401e38:	75 a1                	jne    401ddb <_ZSt13__heap_selectIN9__gnu_cxx17__normal_iteratorIPiSt6vectorIiSaIiEEEENS0_5__ops15_Iter_comp_iterISt7greaterIiEEEEvT_SC_SC_T0_+0x3e>
  401e3a:	c9                   	leaveq 
  401e3b:	c3                   	retq   

0000000000401e3c <_ZSt11__sort_heapIN9__gnu_cxx17__normal_iteratorIPiSt6vectorIiSaIiEEEENS0_5__ops15_Iter_comp_iterISt7greaterIiEEEEvT_SC_T0_>:
  401e3c:	55                   	push   %rbp
  401e3d:	48 89 e5             	mov    %rsp,%rbp
  401e40:	48 83 ec 20          	sub    $0x20,%rsp
  401e44:	48 89 7d f0          	mov    %rdi,-0x10(%rbp)
  401e48:	48 89 75 e0          	mov    %rsi,-0x20(%rbp)
  401e4c:	eb 30                	jmp    401e7e <_ZSt11__sort_heapIN9__gnu_cxx17__normal_iteratorIPiSt6vectorIiSaIiEEEENS0_5__ops15_Iter_comp_iterISt7greaterIiEEEEvT_SC_T0_+0x42>
  401e4e:	48 8d 45 e0          	lea    -0x20(%rbp),%rax
  401e52:	48 89 c7             	mov    %rax,%rdi
  401e55:	e8 3e 06 00 00       	callq  402498 <_ZN9__gnu_cxx17__normal_iteratorIPiSt6vectorIiSaIiEEEmmEv>
  401e5a:	48 83 ec 08          	sub    $0x8,%rsp
  401e5e:	48 8b 55 e0          	mov    -0x20(%rbp),%rdx
  401e62:	48 8b 4d e0          	mov    -0x20(%rbp),%rcx
  401e66:	48 8b 45 f0          	mov    -0x10(%rbp),%rax
  401e6a:	0f b6 75 10          	movzbl 0x10(%rbp),%esi
  401e6e:	56                   	push   %rsi
  401e6f:	48 89 ce             	mov    %rcx,%rsi
  401e72:	48 89 c7             	mov    %rax,%rdi
  401e75:	e8 96 05 00 00       	callq  402410 <_ZSt10__pop_heapIN9__gnu_cxx17__normal_iteratorIPiSt6vectorIiSaIiEEEENS0_5__ops15_Iter_comp_iterISt7greaterIiEEEEvT_SC_SC_T0_>
  401e7a:	48 83 c4 10          	add    $0x10,%rsp
  401e7e:	48 8d 55 f0          	lea    -0x10(%rbp),%rdx
  401e82:	48 8d 45 e0          	lea    -0x20(%rbp),%rax
  401e86:	48 89 d6             	mov    %rdx,%rsi
  401e89:	48 89 c7             	mov    %rax,%rdi
  401e8c:	e8 28 f7 ff ff       	callq  4015b9 <_ZN9__gnu_cxxmiIPiSt6vectorIiSaIiEEEENS_17__normal_iteratorIT_T0_E15difference_typeERKS8_SB_>
  401e91:	48 83 f8 01          	cmp    $0x1,%rax
  401e95:	0f 9f c0             	setg   %al
  401e98:	84 c0                	test   %al,%al
  401e9a:	75 b2                	jne    401e4e <_ZSt11__sort_heapIN9__gnu_cxx17__normal_iteratorIPiSt6vectorIiSaIiEEEENS0_5__ops15_Iter_comp_iterISt7greaterIiEEEEvT_SC_T0_+0x12>
  401e9c:	c9                   	leaveq 
  401e9d:	c3                   	retq   

0000000000401e9e <_ZNK9__gnu_cxx17__normal_iteratorIPiSt6vectorIiSaIiEEEmiEl>:
  401e9e:	55                   	push   %rbp
  401e9f:	48 89 e5             	mov    %rsp,%rbp
  401ea2:	48 83 ec 20          	sub    $0x20,%rsp
  401ea6:	48 89 7d e8          	mov    %rdi,-0x18(%rbp)
  401eaa:	48 89 75 e0          	mov    %rsi,-0x20(%rbp)
  401eae:	48 8b 45 e8          	mov    -0x18(%rbp),%rax
  401eb2:	48 8b 00             	mov    (%rax),%rax
  401eb5:	48 8b 55 e0          	mov    -0x20(%rbp),%rdx
  401eb9:	48 c1 e2 02          	shl    $0x2,%rdx
  401ebd:	48 f7 da             	neg    %rdx
  401ec0:	48 01 d0             	add    %rdx,%rax
  401ec3:	48 89 45 f8          	mov    %rax,-0x8(%rbp)
  401ec7:	48 8d 55 f8          	lea    -0x8(%rbp),%rdx
  401ecb:	48 8d 45 f0          	lea    -0x10(%rbp),%rax
  401ecf:	48 89 d6             	mov    %rdx,%rsi
  401ed2:	48 89 c7             	mov    %rax,%rdi
  401ed5:	e8 08 f4 ff ff       	callq  4012e2 <_ZN9__gnu_cxx17__normal_iteratorIPiSt6vectorIiSaIiEEEC1ERKS1_>
  401eda:	48 8b 45 f0          	mov    -0x10(%rbp),%rax
  401ede:	c9                   	leaveq 
  401edf:	c3                   	retq   

0000000000401ee0 <_ZSt22__move_median_to_firstIN9__gnu_cxx17__normal_iteratorIPiSt6vectorIiSaIiEEEENS0_5__ops15_Iter_comp_iterISt7greaterIiEEEEvT_SC_SC_SC_T0_>:
  401ee0:	55                   	push   %rbp
  401ee1:	48 89 e5             	mov    %rsp,%rbp
  401ee4:	48 83 ec 40          	sub    $0x40,%rsp
  401ee8:	48 89 7d f0          	mov    %rdi,-0x10(%rbp)
  401eec:	48 89 75 e0          	mov    %rsi,-0x20(%rbp)
  401ef0:	48 89 55 d0          	mov    %rdx,-0x30(%rbp)
  401ef4:	48 89 4d c0          	mov    %rcx,-0x40(%rbp)
  401ef8:	48 8b 55 d0          	mov    -0x30(%rbp),%rdx
  401efc:	48 8b 45 e0          	mov    -0x20(%rbp),%rax
  401f00:	48 89 c6             	mov    %rax,%rsi
  401f03:	48 8d 7d 10          	lea    0x10(%rbp),%rdi
  401f07:	e8 f6 01 00 00       	callq  402102 <_ZN9__gnu_cxx5__ops15_Iter_comp_iterISt7greaterIiEEclINS_17__normal_iteratorIPiSt6vectorIiSaIiEEEESB_EEbT_T0_>
  401f0c:	84 c0                	test   %al,%al
  401f0e:	74 75                	je     401f85 <_ZSt22__move_median_to_firstIN9__gnu_cxx17__normal_iteratorIPiSt6vectorIiSaIiEEEENS0_5__ops15_Iter_comp_iterISt7greaterIiEEEEvT_SC_SC_SC_T0_+0xa5>
  401f10:	48 8b 55 c0          	mov    -0x40(%rbp),%rdx
  401f14:	48 8b 45 d0          	mov    -0x30(%rbp),%rax
  401f18:	48 89 c6             	mov    %rax,%rsi
  401f1b:	48 8d 7d 10          	lea    0x10(%rbp),%rdi
  401f1f:	e8 de 01 00 00       	callq  402102 <_ZN9__gnu_cxx5__ops15_Iter_comp_iterISt7greaterIiEEclINS_17__normal_iteratorIPiSt6vectorIiSaIiEEEESB_EEbT_T0_>
  401f24:	84 c0                	test   %al,%al
  401f26:	74 18                	je     401f40 <_ZSt22__move_median_to_firstIN9__gnu_cxx17__normal_iteratorIPiSt6vectorIiSaIiEEEENS0_5__ops15_Iter_comp_iterISt7greaterIiEEEEvT_SC_SC_SC_T0_+0x60>
  401f28:	48 8b 55 d0          	mov    -0x30(%rbp),%rdx
  401f2c:	48 8b 45 f0          	mov    -0x10(%rbp),%rax
  401f30:	48 89 d6             	mov    %rdx,%rsi
  401f33:	48 89 c7             	mov    %rax,%rdi
  401f36:	e8 7d 05 00 00       	callq  4024b8 <_ZSt9iter_swapIN9__gnu_cxx17__normal_iteratorIPiSt6vectorIiSaIiEEEES6_EvT_T0_>
  401f3b:	e9 b2 00 00 00       	jmpq   401ff2 <_ZSt22__move_median_to_firstIN9__gnu_cxx17__normal_iteratorIPiSt6vectorIiSaIiEEEENS0_5__ops15_Iter_comp_iterISt7greaterIiEEEEvT_SC_SC_SC_T0_+0x112>
  401f40:	48 8b 55 c0          	mov    -0x40(%rbp),%rdx
  401f44:	48 8b 45 e0          	mov    -0x20(%rbp),%rax
  401f48:	48 89 c6             	mov    %rax,%rsi
  401f4b:	48 8d 7d 10          	lea    0x10(%rbp),%rdi
  401f4f:	e8 ae 01 00 00       	callq  402102 <_ZN9__gnu_cxx5__ops15_Iter_comp_iterISt7greaterIiEEclINS_17__normal_iteratorIPiSt6vectorIiSaIiEEEESB_EEbT_T0_>
  401f54:	84 c0                	test   %al,%al
  401f56:	74 18                	je     401f70 <_ZSt22__move_median_to_firstIN9__gnu_cxx17__normal_iteratorIPiSt6vectorIiSaIiEEEENS0_5__ops15_Iter_comp_iterISt7greaterIiEEEEvT_SC_SC_SC_T0_+0x90>
  401f58:	48 8b 55 c0          	mov    -0x40(%rbp),%rdx
  401f5c:	48 8b 45 f0          	mov    -0x10(%rbp),%rax
  401f60:	48 89 d6             	mov    %rdx,%rsi
  401f63:	48 89 c7             	mov    %rax,%rdi
  401f66:	e8 4d 05 00 00       	callq  4024b8 <_ZSt9iter_swapIN9__gnu_cxx17__normal_iteratorIPiSt6vectorIiSaIiEEEES6_EvT_T0_>
  401f6b:	e9 82 00 00 00       	jmpq   401ff2 <_ZSt22__move_median_to_firstIN9__gnu_cxx17__normal_iteratorIPiSt6vectorIiSaIiEEEENS0_5__ops15_Iter_comp_iterISt7greaterIiEEEEvT_SC_SC_SC_T0_+0x112>
  401f70:	48 8b 55 e0          	mov    -0x20(%rbp),%rdx
  401f74:	48 8b 45 f0          	mov    -0x10(%rbp),%rax
  401f78:	48 89 d6             	mov    %rdx,%rsi
  401f7b:	48 89 c7             	mov    %rax,%rdi
  401f7e:	e8 35 05 00 00       	callq  4024b8 <_ZSt9iter_swapIN9__gnu_cxx17__normal_iteratorIPiSt6vectorIiSaIiEEEES6_EvT_T0_>
  401f83:	eb 6d                	jmp    401ff2 <_ZSt22__move_median_to_firstIN9__gnu_cxx17__normal_iteratorIPiSt6vectorIiSaIiEEEENS0_5__ops15_Iter_comp_iterISt7greaterIiEEEEvT_SC_SC_SC_T0_+0x112>
  401f85:	48 8b 55 c0          	mov    -0x40(%rbp),%rdx
  401f89:	48 8b 45 e0          	mov    -0x20(%rbp),%rax
  401f8d:	48 89 c6             	mov    %rax,%rsi
  401f90:	48 8d 7d 10          	lea    0x10(%rbp),%rdi
  401f94:	e8 69 01 00 00       	callq  402102 <_ZN9__gnu_cxx5__ops15_Iter_comp_iterISt7greaterIiEEclINS_17__normal_iteratorIPiSt6vectorIiSaIiEEEESB_EEbT_T0_>
  401f99:	84 c0                	test   %al,%al
  401f9b:	74 15                	je     401fb2 <_ZSt22__move_median_to_firstIN9__gnu_cxx17__normal_iteratorIPiSt6vectorIiSaIiEEEENS0_5__ops15_Iter_comp_iterISt7greaterIiEEEEvT_SC_SC_SC_T0_+0xd2>
  401f9d:	48 8b 55 e0          	mov    -0x20(%rbp),%rdx
  401fa1:	48 8b 45 f0          	mov    -0x10(%rbp),%rax
  401fa5:	48 89 d6             	mov    %rdx,%rsi
  401fa8:	48 89 c7             	mov    %rax,%rdi
  401fab:	e8 08 05 00 00       	callq  4024b8 <_ZSt9iter_swapIN9__gnu_cxx17__normal_iteratorIPiSt6vectorIiSaIiEEEES6_EvT_T0_>
  401fb0:	eb 40                	jmp    401ff2 <_ZSt22__move_median_to_firstIN9__gnu_cxx17__normal_iteratorIPiSt6vectorIiSaIiEEEENS0_5__ops15_Iter_comp_iterISt7greaterIiEEEEvT_SC_SC_SC_T0_+0x112>
  401fb2:	48 8b 55 c0          	mov    -0x40(%rbp),%rdx
  401fb6:	48 8b 45 d0          	mov    -0x30(%rbp),%rax
  401fba:	48 89 c6             	mov    %rax,%rsi
  401fbd:	48 8d 7d 10          	lea    0x10(%rbp),%rdi
  401fc1:	e8 3c 01 00 00       	callq  402102 <_ZN9__gnu_cxx5__ops15_Iter_comp_iterISt7greaterIiEEclINS_17__normal_iteratorIPiSt6vectorIiSaIiEEEESB_EEbT_T0_>
  401fc6:	84 c0                	test   %al,%al
  401fc8:	74 15                	je     401fdf <_ZSt22__move_median_to_firstIN9__gnu_cxx17__normal_iteratorIPiSt6vectorIiSaIiEEEENS0_5__ops15_Iter_comp_iterISt7greaterIiEEEEvT_SC_SC_SC_T0_+0xff>
  401fca:	48 8b 55 c0          	mov    -0x40(%rbp),%rdx
  401fce:	48 8b 45 f0          	mov    -0x10(%rbp),%rax
  401fd2:	48 89 d6             	mov    %rdx,%rsi
  401fd5:	48 89 c7             	mov    %rax,%rdi
  401fd8:	e8 db 04 00 00       	callq  4024b8 <_ZSt9iter_swapIN9__gnu_cxx17__normal_iteratorIPiSt6vectorIiSaIiEEEES6_EvT_T0_>
  401fdd:	eb 13                	jmp    401ff2 <_ZSt22__move_median_to_firstIN9__gnu_cxx17__normal_iteratorIPiSt6vectorIiSaIiEEEENS0_5__ops15_Iter_comp_iterISt7greaterIiEEEEvT_SC_SC_SC_T0_+0x112>
  401fdf:	48 8b 55 d0          	mov    -0x30(%rbp),%rdx
  401fe3:	48 8b 45 f0          	mov    -0x10(%rbp),%rax
  401fe7:	48 89 d6             	mov    %rdx,%rsi
  401fea:	48 89 c7             	mov    %rax,%rdi
  401fed:	e8 c6 04 00 00       	callq  4024b8 <_ZSt9iter_swapIN9__gnu_cxx17__normal_iteratorIPiSt6vectorIiSaIiEEEES6_EvT_T0_>
  401ff2:	c9                   	leaveq 
  401ff3:	c3                   	retq   

0000000000401ff4 <_ZSt21__unguarded_partitionIN9__gnu_cxx17__normal_iteratorIPiSt6vectorIiSaIiEEEENS0_5__ops15_Iter_comp_iterISt7greaterIiEEEET_SC_SC_SC_T0_>:
  401ff4:	55                   	push   %rbp
  401ff5:	48 89 e5             	mov    %rsp,%rbp
  401ff8:	48 83 ec 30          	sub    $0x30,%rsp
  401ffc:	48 89 7d f0          	mov    %rdi,-0x10(%rbp)
  402000:	48 89 75 e0          	mov    %rsi,-0x20(%rbp)
  402004:	48 89 55 d0          	mov    %rdx,-0x30(%rbp)
  402008:	eb 0c                	jmp    402016 <_ZSt21__unguarded_partitionIN9__gnu_cxx17__normal_iteratorIPiSt6vectorIiSaIiEEEENS0_5__ops15_Iter_comp_iterISt7greaterIiEEEET_SC_SC_SC_T0_+0x22>
  40200a:	48 8d 45 f0          	lea    -0x10(%rbp),%rax
  40200e:	48 89 c7             	mov    %rax,%rdi
  402011:	e8 cc 00 00 00       	callq  4020e2 <_ZN9__gnu_cxx17__normal_iteratorIPiSt6vectorIiSaIiEEEppEv>
  402016:	48 8b 55 d0          	mov    -0x30(%rbp),%rdx
  40201a:	48 8b 45 f0          	mov    -0x10(%rbp),%rax
  40201e:	48 89 c6             	mov    %rax,%rsi
  402021:	48 8d 7d 10          	lea    0x10(%rbp),%rdi
  402025:	e8 d8 00 00 00       	callq  402102 <_ZN9__gnu_cxx5__ops15_Iter_comp_iterISt7greaterIiEEclINS_17__normal_iteratorIPiSt6vectorIiSaIiEEEESB_EEbT_T0_>
  40202a:	84 c0                	test   %al,%al
  40202c:	75 dc                	jne    40200a <_ZSt21__unguarded_partitionIN9__gnu_cxx17__normal_iteratorIPiSt6vectorIiSaIiEEEENS0_5__ops15_Iter_comp_iterISt7greaterIiEEEET_SC_SC_SC_T0_+0x16>
  40202e:	48 8d 45 e0          	lea    -0x20(%rbp),%rax
  402032:	48 89 c7             	mov    %rax,%rdi
  402035:	e8 5e 04 00 00       	callq  402498 <_ZN9__gnu_cxx17__normal_iteratorIPiSt6vectorIiSaIiEEEmmEv>
  40203a:	eb 0c                	jmp    402048 <_ZSt21__unguarded_partitionIN9__gnu_cxx17__normal_iteratorIPiSt6vectorIiSaIiEEEENS0_5__ops15_Iter_comp_iterISt7greaterIiEEEET_SC_SC_SC_T0_+0x54>
  40203c:	48 8d 45 e0          	lea    -0x20(%rbp),%rax
  402040:	48 89 c7             	mov    %rax,%rdi
  402043:	e8 50 04 00 00       	callq  402498 <_ZN9__gnu_cxx17__normal_iteratorIPiSt6vectorIiSaIiEEEmmEv>
  402048:	48 8b 55 e0          	mov    -0x20(%rbp),%rdx
  40204c:	48 8b 45 d0          	mov    -0x30(%rbp),%rax
  402050:	48 89 c6             	mov    %rax,%rsi
  402053:	48 8d 7d 10          	lea    0x10(%rbp),%rdi
  402057:	e8 a6 00 00 00       	callq  402102 <_ZN9__gnu_cxx5__ops15_Iter_comp_iterISt7greaterIiEEclINS_17__normal_iteratorIPiSt6vectorIiSaIiEEEESB_EEbT_T0_>
  40205c:	84 c0                	test   %al,%al
  40205e:	75 dc                	jne    40203c <_ZSt21__unguarded_partitionIN9__gnu_cxx17__normal_iteratorIPiSt6vectorIiSaIiEEEENS0_5__ops15_Iter_comp_iterISt7greaterIiEEEET_SC_SC_SC_T0_+0x48>
  402060:	48 8d 55 e0          	lea    -0x20(%rbp),%rdx
  402064:	48 8d 45 f0          	lea    -0x10(%rbp),%rax
  402068:	48 89 d6             	mov    %rdx,%rsi
  40206b:	48 89 c7             	mov    %rax,%rdi
  40206e:	e8 61 03 00 00       	callq  4023d4 <_ZN9__gnu_cxxltIPiSt6vectorIiSaIiEEEEbRKNS_17__normal_iteratorIT_T0_EESA_>
  402073:	83 f0 01             	xor    $0x1,%eax
  402076:	84 c0                	test   %al,%al
  402078:	74 06                	je     402080 <_ZSt21__unguarded_partitionIN9__gnu_cxx17__normal_iteratorIPiSt6vectorIiSaIiEEEENS0_5__ops15_Iter_comp_iterISt7greaterIiEEEET_SC_SC_SC_T0_+0x8c>
  40207a:	48 8b 45 f0          	mov    -0x10(%rbp),%rax
  40207e:	eb 24                	jmp    4020a4 <_ZSt21__unguarded_partitionIN9__gnu_cxx17__normal_iteratorIPiSt6vectorIiSaIiEEEENS0_5__ops15_Iter_comp_iterISt7greaterIiEEEET_SC_SC_SC_T0_+0xb0>
  402080:	48 8b 55 e0          	mov    -0x20(%rbp),%rdx
  402084:	48 8b 45 f0          	mov    -0x10(%rbp),%rax
  402088:	48 89 d6             	mov    %rdx,%rsi
  40208b:	48 89 c7             	mov    %rax,%rdi
  40208e:	e8 25 04 00 00       	callq  4024b8 <_ZSt9iter_swapIN9__gnu_cxx17__normal_iteratorIPiSt6vectorIiSaIiEEEES6_EvT_T0_>
  402093:	48 8d 45 f0          	lea    -0x10(%rbp),%rax
  402097:	48 89 c7             	mov    %rax,%rdi
  40209a:	e8 43 00 00 00       	callq  4020e2 <_ZN9__gnu_cxx17__normal_iteratorIPiSt6vectorIiSaIiEEEppEv>
  40209f:	e9 64 ff ff ff       	jmpq   402008 <_ZSt21__unguarded_partitionIN9__gnu_cxx17__normal_iteratorIPiSt6vectorIiSaIiEEEENS0_5__ops15_Iter_comp_iterISt7greaterIiEEEET_SC_SC_SC_T0_+0x14>
  4020a4:	c9                   	leaveq 
  4020a5:	c3                   	retq   

00000000004020a6 <_ZN9__gnu_cxxeqIPiSt6vectorIiSaIiEEEEbRKNS_17__normal_iteratorIT_T0_EESA_>:
  4020a6:	55                   	push   %rbp
  4020a7:	48 89 e5             	mov    %rsp,%rbp
  4020aa:	53                   	push   %rbx
  4020ab:	48 83 ec 18          	sub    $0x18,%rsp
  4020af:	48 89 7d e8          	mov    %rdi,-0x18(%rbp)
  4020b3:	48 89 75 e0          	mov    %rsi,-0x20(%rbp)
  4020b7:	48 8b 45 e8          	mov    -0x18(%rbp),%rax
  4020bb:	48 89 c7             	mov    %rax,%rdi
  4020be:	e8 ed f2 ff ff       	callq  4013b0 <_ZNK9__gnu_cxx17__normal_iteratorIPiSt6vectorIiSaIiEEE4baseEv>
  4020c3:	48 8b 18             	mov    (%rax),%rbx
  4020c6:	48 8b 45 e0          	mov    -0x20(%rbp),%rax
  4020ca:	48 89 c7             	mov    %rax,%rdi
  4020cd:	e8 de f2 ff ff       	callq  4013b0 <_ZNK9__gnu_cxx17__normal_iteratorIPiSt6vectorIiSaIiEEE4baseEv>
  4020d2:	48 8b 00             	mov    (%rax),%rax
  4020d5:	48 39 c3             	cmp    %rax,%rbx
  4020d8:	0f 94 c0             	sete   %al
  4020db:	48 83 c4 18          	add    $0x18,%rsp
  4020df:	5b                   	pop    %rbx
  4020e0:	5d                   	pop    %rbp
  4020e1:	c3                   	retq   

00000000004020e2 <_ZN9__gnu_cxx17__normal_iteratorIPiSt6vectorIiSaIiEEEppEv>:
  4020e2:	55                   	push   %rbp
  4020e3:	48 89 e5             	mov    %rsp,%rbp
  4020e6:	48 89 7d f8          	mov    %rdi,-0x8(%rbp)
  4020ea:	48 8b 45 f8          	mov    -0x8(%rbp),%rax
  4020ee:	48 8b 00             	mov    (%rax),%rax
  4020f1:	48 8d 50 04          	lea    0x4(%rax),%rdx
  4020f5:	48 8b 45 f8          	mov    -0x8(%rbp),%rax
  4020f9:	48 89 10             	mov    %rdx,(%rax)
  4020fc:	48 8b 45 f8          	mov    -0x8(%rbp),%rax
  402100:	5d                   	pop    %rbp
  402101:	c3                   	retq   

0000000000402102 <_ZN9__gnu_cxx5__ops15_Iter_comp_iterISt7greaterIiEEclINS_17__normal_iteratorIPiSt6vectorIiSaIiEEEESB_EEbT_T0_>:
  402102:	55                   	push   %rbp
  402103:	48 89 e5             	mov    %rsp,%rbp
  402106:	53                   	push   %rbx
  402107:	48 83 ec 28          	sub    $0x28,%rsp
  40210b:	48 89 7d e8          	mov    %rdi,-0x18(%rbp)
  40210f:	48 89 75 e0          	mov    %rsi,-0x20(%rbp)
  402113:	48 89 55 d0          	mov    %rdx,-0x30(%rbp)
  402117:	48 8d 45 d0          	lea    -0x30(%rbp),%rax
  40211b:	48 89 c7             	mov    %rax,%rdi
  40211e:	e8 bb ed ff ff       	callq  400ede <_ZNK9__gnu_cxx17__normal_iteratorIPiSt6vectorIiSaIiEEEdeEv>
  402123:	48 89 c3             	mov    %rax,%rbx
  402126:	48 8d 45 e0          	lea    -0x20(%rbp),%rax
  40212a:	48 89 c7             	mov    %rax,%rdi
  40212d:	e8 ac ed ff ff       	callq  400ede <_ZNK9__gnu_cxx17__normal_iteratorIPiSt6vectorIiSaIiEEEdeEv>
  402132:	48 89 c1             	mov    %rax,%rcx
  402135:	48 8b 45 e8          	mov    -0x18(%rbp),%rax
  402139:	48 89 da             	mov    %rbx,%rdx
  40213c:	48 89 ce             	mov    %rcx,%rsi
  40213f:	48 89 c7             	mov    %rax,%rdi
  402142:	e8 97 03 00 00       	callq  4024de <_ZNKSt7greaterIiEclERKiS2_>
  402147:	48 83 c4 28          	add    $0x28,%rsp
  40214b:	5b                   	pop    %rbx
  40214c:	5d                   	pop    %rbp
  40214d:	c3                   	retq   

000000000040214e <_ZSt13copy_backwardIN9__gnu_cxx17__normal_iteratorIPiSt6vectorIiSaIiEEEES6_ET0_T_S8_S7_>:
  40214e:	55                   	push   %rbp
  40214f:	48 89 e5             	mov    %rsp,%rbp
  402152:	53                   	push   %rbx
  402153:	48 83 ec 38          	sub    $0x38,%rsp
  402157:	48 89 7d e0          	mov    %rdi,-0x20(%rbp)
  40215b:	48 89 75 d0          	mov    %rsi,-0x30(%rbp)
  40215f:	48 89 55 c0          	mov    %rdx,-0x40(%rbp)
  402163:	48 8b 45 d0          	mov    -0x30(%rbp),%rax
  402167:	48 89 c7             	mov    %rax,%rdi
  40216a:	e8 92 03 00 00       	callq  402501 <_ZSt12__miter_baseIN9__gnu_cxx17__normal_iteratorIPiSt6vectorIiSaIiEEEEENSt11_Miter_baseIT_E13iterator_typeES8_>
  40216f:	48 89 c3             	mov    %rax,%rbx
  402172:	48 8b 45 e0          	mov    -0x20(%rbp),%rax
  402176:	48 89 c7             	mov    %rax,%rdi
  402179:	e8 83 03 00 00       	callq  402501 <_ZSt12__miter_baseIN9__gnu_cxx17__normal_iteratorIPiSt6vectorIiSaIiEEEEENSt11_Miter_baseIT_E13iterator_typeES8_>
  40217e:	48 89 c1             	mov    %rax,%rcx
  402181:	48 8b 45 c0          	mov    -0x40(%rbp),%rax
  402185:	48 89 c2             	mov    %rax,%rdx
  402188:	48 89 de             	mov    %rbx,%rsi
  40218b:	48 89 cf             	mov    %rcx,%rdi
  40218e:	e8 88 03 00 00       	callq  40251b <_ZSt23__copy_move_backward_a2ILb0EN9__gnu_cxx17__normal_iteratorIPiSt6vectorIiSaIiEEEES6_ET1_T0_S8_S7_>
  402193:	48 83 c4 38          	add    $0x38,%rsp
  402197:	5b                   	pop    %rbx
  402198:	5d                   	pop    %rbp
  402199:	c3                   	retq   

000000000040219a <_ZN9__gnu_cxx5__ops15__val_comp_iterISt7greaterIiEEENS0_14_Val_comp_iterIT_EENS0_15_Iter_comp_iterIS5_EE>:
  40219a:	55                   	push   %rbp
  40219b:	48 89 e5             	mov    %rsp,%rbp
  40219e:	53                   	push   %rbx
  40219f:	48 83 ec 18          	sub    $0x18,%rsp
  4021a3:	48 83 ec 08          	sub    $0x8,%rsp
  4021a7:	48 8d 45 ef          	lea    -0x11(%rbp),%rax
  4021ab:	52                   	push   %rdx
  4021ac:	48 89 c7             	mov    %rax,%rdi
  4021af:	e8 da 03 00 00       	callq  40258e <_ZN9__gnu_cxx5__ops14_Val_comp_iterISt7greaterIiEEC1ES3_>
  4021b4:	48 83 c4 10          	add    $0x10,%rsp
  4021b8:	89 d8                	mov    %ebx,%eax
  4021ba:	48 8b 5d f8          	mov    -0x8(%rbp),%rbx
  4021be:	c9                   	leaveq 
  4021bf:	c3                   	retq   

00000000004021c0 <_ZSt25__unguarded_linear_insertIN9__gnu_cxx17__normal_iteratorIPiSt6vectorIiSaIiEEEENS0_5__ops14_Val_comp_iterISt7greaterIiEEEEvT_T0_>:
  4021c0:	55                   	push   %rbp
  4021c1:	48 89 e5             	mov    %rsp,%rbp
  4021c4:	53                   	push   %rbx
  4021c5:	48 83 ec 28          	sub    $0x28,%rsp
  4021c9:	48 89 7d d0          	mov    %rdi,-0x30(%rbp)
  4021cd:	48 8d 45 d0          	lea    -0x30(%rbp),%rax
  4021d1:	48 89 c7             	mov    %rax,%rdi
  4021d4:	e8 05 ed ff ff       	callq  400ede <_ZNK9__gnu_cxx17__normal_iteratorIPiSt6vectorIiSaIiEEEdeEv>
  4021d9:	8b 00                	mov    (%rax),%eax
  4021db:	89 45 ec             	mov    %eax,-0x14(%rbp)
  4021de:	48 8b 45 d0          	mov    -0x30(%rbp),%rax
  4021e2:	48 89 45 e0          	mov    %rax,-0x20(%rbp)
  4021e6:	48 8d 45 e0          	lea    -0x20(%rbp),%rax
  4021ea:	48 89 c7             	mov    %rax,%rdi
  4021ed:	e8 a6 02 00 00       	callq  402498 <_ZN9__gnu_cxx17__normal_iteratorIPiSt6vectorIiSaIiEEEmmEv>
  4021f2:	eb 33                	jmp    402227 <_ZSt25__unguarded_linear_insertIN9__gnu_cxx17__normal_iteratorIPiSt6vectorIiSaIiEEEENS0_5__ops14_Val_comp_iterISt7greaterIiEEEEvT_T0_+0x67>
  4021f4:	48 8d 45 d0          	lea    -0x30(%rbp),%rax
  4021f8:	48 89 c7             	mov    %rax,%rdi
  4021fb:	e8 de ec ff ff       	callq  400ede <_ZNK9__gnu_cxx17__normal_iteratorIPiSt6vectorIiSaIiEEEdeEv>
  402200:	48 89 c3             	mov    %rax,%rbx
  402203:	48 8d 45 e0          	lea    -0x20(%rbp),%rax
  402207:	48 89 c7             	mov    %rax,%rdi
  40220a:	e8 cf ec ff ff       	callq  400ede <_ZNK9__gnu_cxx17__normal_iteratorIPiSt6vectorIiSaIiEEEdeEv>
  40220f:	8b 00                	mov    (%rax),%eax
  402211:	89 03                	mov    %eax,(%rbx)
  402213:	48 8b 45 e0          	mov    -0x20(%rbp),%rax
  402217:	48 89 45 d0          	mov    %rax,-0x30(%rbp)
  40221b:	48 8d 45 e0          	lea    -0x20(%rbp),%rax
  40221f:	48 89 c7             	mov    %rax,%rdi
  402222:	e8 71 02 00 00       	callq  402498 <_ZN9__gnu_cxx17__normal_iteratorIPiSt6vectorIiSaIiEEEmmEv>
  402227:	48 8b 55 e0          	mov    -0x20(%rbp),%rdx
  40222b:	48 8d 45 ec          	lea    -0x14(%rbp),%rax
  40222f:	48 89 c6             	mov    %rax,%rsi
  402232:	48 8d 7d 10          	lea    0x10(%rbp),%rdi
  402236:	e8 5d 03 00 00       	callq  402598 <_ZN9__gnu_cxx5__ops14_Val_comp_iterISt7greaterIiEEclIiNS_17__normal_iteratorIPiSt6vectorIiSaIiEEEEEEbRT_T0_>
  40223b:	84 c0                	test   %al,%al
  40223d:	75 b5                	jne    4021f4 <_ZSt25__unguarded_linear_insertIN9__gnu_cxx17__normal_iteratorIPiSt6vectorIiSaIiEEEENS0_5__ops14_Val_comp_iterISt7greaterIiEEEEvT_T0_+0x34>
  40223f:	48 8d 45 d0          	lea    -0x30(%rbp),%rax
  402243:	48 89 c7             	mov    %rax,%rdi
  402246:	e8 93 ec ff ff       	callq  400ede <_ZNK9__gnu_cxx17__normal_iteratorIPiSt6vectorIiSaIiEEEdeEv>
  40224b:	48 89 c2             	mov    %rax,%rdx
  40224e:	8b 45 ec             	mov    -0x14(%rbp),%eax
  402251:	89 02                	mov    %eax,(%rdx)
  402253:	48 83 c4 28          	add    $0x28,%rsp
  402257:	5b                   	pop    %rbx
  402258:	5d                   	pop    %rbp
  402259:	c3                   	retq   

000000000040225a <_ZNSt20__copy_move_backwardILb0ELb1ESt26random_access_iterator_tagE13__copy_move_bIiEEPT_PKS3_S6_S4_>:
  40225a:	55                   	push   %rbp
  40225b:	48 89 e5             	mov    %rsp,%rbp
  40225e:	48 83 ec 30          	sub    $0x30,%rsp
  402262:	48 89 7d e8          	mov    %rdi,-0x18(%rbp)
  402266:	48 89 75 e0          	mov    %rsi,-0x20(%rbp)
  40226a:	48 89 55 d8          	mov    %rdx,-0x28(%rbp)
  40226e:	48 8b 55 e0          	mov    -0x20(%rbp),%rdx
  402272:	48 8b 45 e8          	mov    -0x18(%rbp),%rax
  402276:	48 29 c2             	sub    %rax,%rdx
  402279:	48 89 d0             	mov    %rdx,%rax
  40227c:	48 c1 f8 02          	sar    $0x2,%rax
  402280:	48 89 45 f8          	mov    %rax,-0x8(%rbp)
  402284:	48 83 7d f8 00       	cmpq   $0x0,-0x8(%rbp)
  402289:	74 30                	je     4022bb <_ZNSt20__copy_move_backwardILb0ELb1ESt26random_access_iterator_tagE13__copy_move_bIiEEPT_PKS3_S6_S4_+0x61>
  40228b:	48 8b 45 f8          	mov    -0x8(%rbp),%rax
  40228f:	48 8d 14 85 00 00 00 	lea    0x0(,%rax,4),%rdx
  402296:	00 
  402297:	48 8b 45 f8          	mov    -0x8(%rbp),%rax
  40229b:	48 c1 e0 02          	shl    $0x2,%rax
  40229f:	48 f7 d8             	neg    %rax
  4022a2:	48 89 c1             	mov    %rax,%rcx
  4022a5:	48 8b 45 d8          	mov    -0x28(%rbp),%rax
  4022a9:	48 01 c1             	add    %rax,%rcx
  4022ac:	48 8b 45 e8          	mov    -0x18(%rbp),%rax
  4022b0:	48 89 c6             	mov    %rax,%rsi
  4022b3:	48 89 cf             	mov    %rcx,%rdi
  4022b6:	e8 b5 e5 ff ff       	callq  400870 <memmove@plt>
  4022bb:	48 8b 45 f8          	mov    -0x8(%rbp),%rax
  4022bf:	48 c1 e0 02          	shl    $0x2,%rax
  4022c3:	48 f7 d8             	neg    %rax
  4022c6:	48 89 c2             	mov    %rax,%rdx
  4022c9:	48 8b 45 d8          	mov    -0x28(%rbp),%rax
  4022cd:	48 01 d0             	add    %rdx,%rax
  4022d0:	c9                   	leaveq 
  4022d1:	c3                   	retq   

00000000004022d2 <_ZNK9__gnu_cxx13new_allocatorIiE8max_sizeEv>:
  4022d2:	55                   	push   %rbp
  4022d3:	48 89 e5             	mov    %rsp,%rbp
  4022d6:	48 89 7d f8          	mov    %rdi,-0x8(%rbp)
  4022da:	48 b8 ff ff ff ff ff 	mov    $0x3fffffffffffffff,%rax
  4022e1:	ff ff 3f 
  4022e4:	5d                   	pop    %rbp
  4022e5:	c3                   	retq   

00000000004022e6 <_ZNSt20__uninitialized_copyILb1EE13__uninit_copyIPiS2_EET0_T_S4_S3_>:
  4022e6:	55                   	push   %rbp
  4022e7:	48 89 e5             	mov    %rsp,%rbp
  4022ea:	48 83 ec 20          	sub    $0x20,%rsp
  4022ee:	48 89 7d f8          	mov    %rdi,-0x8(%rbp)
  4022f2:	48 89 75 f0          	mov    %rsi,-0x10(%rbp)
  4022f6:	48 89 55 e8          	mov    %rdx,-0x18(%rbp)
  4022fa:	48 8b 55 e8          	mov    -0x18(%rbp),%rdx
  4022fe:	48 8b 4d f0          	mov    -0x10(%rbp),%rcx
  402302:	48 8b 45 f8          	mov    -0x8(%rbp),%rax
  402306:	48 89 ce             	mov    %rcx,%rsi
  402309:	48 89 c7             	mov    %rax,%rdi
  40230c:	e8 bf 02 00 00       	callq  4025d0 <_ZSt4copyIPiS0_ET0_T_S2_S1_>
  402311:	c9                   	leaveq 
  402312:	c3                   	retq   

0000000000402313 <_ZSt11__make_heapIN9__gnu_cxx17__normal_iteratorIPiSt6vectorIiSaIiEEEENS0_5__ops15_Iter_comp_iterISt7greaterIiEEEEvT_SC_T0_>:
  402313:	55                   	push   %rbp
  402314:	48 89 e5             	mov    %rsp,%rbp
  402317:	48 83 ec 40          	sub    $0x40,%rsp
  40231b:	48 89 7d d0          	mov    %rdi,-0x30(%rbp)
  40231f:	48 89 75 c0          	mov    %rsi,-0x40(%rbp)
  402323:	48 8d 55 d0          	lea    -0x30(%rbp),%rdx
  402327:	48 8d 45 c0          	lea    -0x40(%rbp),%rax
  40232b:	48 89 d6             	mov    %rdx,%rsi
  40232e:	48 89 c7             	mov    %rax,%rdi
  402331:	e8 83 f2 ff ff       	callq  4015b9 <_ZN9__gnu_cxxmiIPiSt6vectorIiSaIiEEEENS_17__normal_iteratorIT_T0_E15difference_typeERKS8_SB_>
  402336:	48 83 f8 01          	cmp    $0x1,%rax
  40233a:	0f 9e c0             	setle  %al
  40233d:	84 c0                	test   %al,%al
  40233f:	74 05                	je     402346 <_ZSt11__make_heapIN9__gnu_cxx17__normal_iteratorIPiSt6vectorIiSaIiEEEENS0_5__ops15_Iter_comp_iterISt7greaterIiEEEEvT_SC_T0_+0x33>
  402341:	e9 8c 00 00 00       	jmpq   4023d2 <_ZSt11__make_heapIN9__gnu_cxx17__normal_iteratorIPiSt6vectorIiSaIiEEEENS0_5__ops15_Iter_comp_iterISt7greaterIiEEEEvT_SC_T0_+0xbf>
  402346:	48 8d 55 d0          	lea    -0x30(%rbp),%rdx
  40234a:	48 8d 45 c0          	lea    -0x40(%rbp),%rax
  40234e:	48 89 d6             	mov    %rdx,%rsi
  402351:	48 89 c7             	mov    %rax,%rdi
  402354:	e8 60 f2 ff ff       	callq  4015b9 <_ZN9__gnu_cxxmiIPiSt6vectorIiSaIiEEEENS_17__normal_iteratorIT_T0_E15difference_typeERKS8_SB_>
  402359:	48 89 45 f0          	mov    %rax,-0x10(%rbp)
  40235d:	48 8b 45 f0          	mov    -0x10(%rbp),%rax
  402361:	48 83 e8 02          	sub    $0x2,%rax
  402365:	48 89 c2             	mov    %rax,%rdx
  402368:	48 c1 ea 3f          	shr    $0x3f,%rdx
  40236c:	48 01 d0             	add    %rdx,%rax
  40236f:	48 d1 f8             	sar    %rax
  402372:	48 89 45 f8          	mov    %rax,-0x8(%rbp)
  402376:	48 8b 55 f8          	mov    -0x8(%rbp),%rdx
  40237a:	48 8d 45 d0          	lea    -0x30(%rbp),%rax
  40237e:	48 89 d6             	mov    %rdx,%rsi
  402381:	48 89 c7             	mov    %rax,%rdi
  402384:	e8 47 f7 ff ff       	callq  401ad0 <_ZNK9__gnu_cxx17__normal_iteratorIPiSt6vectorIiSaIiEEEplEl>
  402389:	48 89 45 e0          	mov    %rax,-0x20(%rbp)
  40238d:	48 8d 45 e0          	lea    -0x20(%rbp),%rax
  402391:	48 89 c7             	mov    %rax,%rdi
  402394:	e8 45 eb ff ff       	callq  400ede <_ZNK9__gnu_cxx17__normal_iteratorIPiSt6vectorIiSaIiEEEdeEv>
  402399:	8b 00                	mov    (%rax),%eax
  40239b:	89 45 ec             	mov    %eax,-0x14(%rbp)
  40239e:	48 83 ec 08          	sub    $0x8,%rsp
  4023a2:	8b 4d ec             	mov    -0x14(%rbp),%ecx
  4023a5:	48 8b 55 f0          	mov    -0x10(%rbp),%rdx
  4023a9:	48 8b 75 f8          	mov    -0x8(%rbp),%rsi
  4023ad:	48 8b 45 d0          	mov    -0x30(%rbp),%rax
  4023b1:	0f b6 7d 10          	movzbl 0x10(%rbp),%edi
  4023b5:	57                   	push   %rdi
  4023b6:	48 89 c7             	mov    %rax,%rdi
  4023b9:	e8 5e 02 00 00       	callq  40261c <_ZSt13__adjust_heapIN9__gnu_cxx17__normal_iteratorIPiSt6vectorIiSaIiEEEEliNS0_5__ops15_Iter_comp_iterISt7greaterIiEEEEvT_T0_SD_T1_T2_>
  4023be:	48 83 c4 10          	add    $0x10,%rsp
  4023c2:	48 83 7d f8 00       	cmpq   $0x0,-0x8(%rbp)
  4023c7:	75 02                	jne    4023cb <_ZSt11__make_heapIN9__gnu_cxx17__normal_iteratorIPiSt6vectorIiSaIiEEEENS0_5__ops15_Iter_comp_iterISt7greaterIiEEEEvT_SC_T0_+0xb8>
  4023c9:	eb 07                	jmp    4023d2 <_ZSt11__make_heapIN9__gnu_cxx17__normal_iteratorIPiSt6vectorIiSaIiEEEENS0_5__ops15_Iter_comp_iterISt7greaterIiEEEEvT_SC_T0_+0xbf>
  4023cb:	48 83 6d f8 01       	subq   $0x1,-0x8(%rbp)
  4023d0:	eb a4                	jmp    402376 <_ZSt11__make_heapIN9__gnu_cxx17__normal_iteratorIPiSt6vectorIiSaIiEEEENS0_5__ops15_Iter_comp_iterISt7greaterIiEEEEvT_SC_T0_+0x63>
  4023d2:	c9                   	leaveq 
  4023d3:	c3                   	retq   

00000000004023d4 <_ZN9__gnu_cxxltIPiSt6vectorIiSaIiEEEEbRKNS_17__normal_iteratorIT_T0_EESA_>:
  4023d4:	55                   	push   %rbp
  4023d5:	48 89 e5             	mov    %rsp,%rbp
  4023d8:	53                   	push   %rbx
  4023d9:	48 83 ec 18          	sub    $0x18,%rsp
  4023dd:	48 89 7d e8          	mov    %rdi,-0x18(%rbp)
  4023e1:	48 89 75 e0          	mov    %rsi,-0x20(%rbp)
  4023e5:	48 8b 45 e8          	mov    -0x18(%rbp),%rax
  4023e9:	48 89 c7             	mov    %rax,%rdi
  4023ec:	e8 bf ef ff ff       	callq  4013b0 <_ZNK9__gnu_cxx17__normal_iteratorIPiSt6vectorIiSaIiEEE4baseEv>
  4023f1:	48 8b 18             	mov    (%rax),%rbx
  4023f4:	48 8b 45 e0          	mov    -0x20(%rbp),%rax
  4023f8:	48 89 c7             	mov    %rax,%rdi
  4023fb:	e8 b0 ef ff ff       	callq  4013b0 <_ZNK9__gnu_cxx17__normal_iteratorIPiSt6vectorIiSaIiEEE4baseEv>
  402400:	48 8b 00             	mov    (%rax),%rax
  402403:	48 39 c3             	cmp    %rax,%rbx
  402406:	0f 92 c0             	setb   %al
  402409:	48 83 c4 18          	add    $0x18,%rsp
  40240d:	5b                   	pop    %rbx
  40240e:	5d                   	pop    %rbp
  40240f:	c3                   	retq   

0000000000402410 <_ZSt10__pop_heapIN9__gnu_cxx17__normal_iteratorIPiSt6vectorIiSaIiEEEENS0_5__ops15_Iter_comp_iterISt7greaterIiEEEEvT_SC_SC_T0_>:
  402410:	55                   	push   %rbp
  402411:	48 89 e5             	mov    %rsp,%rbp
  402414:	53                   	push   %rbx
  402415:	48 83 ec 48          	sub    $0x48,%rsp
  402419:	48 89 7d d0          	mov    %rdi,-0x30(%rbp)
  40241d:	48 89 75 c0          	mov    %rsi,-0x40(%rbp)
  402421:	48 89 55 b0          	mov    %rdx,-0x50(%rbp)
  402425:	48 8d 45 b0          	lea    -0x50(%rbp),%rax
  402429:	48 89 c7             	mov    %rax,%rdi
  40242c:	e8 ad ea ff ff       	callq  400ede <_ZNK9__gnu_cxx17__normal_iteratorIPiSt6vectorIiSaIiEEEdeEv>
  402431:	8b 00                	mov    (%rax),%eax
  402433:	89 45 ec             	mov    %eax,-0x14(%rbp)
  402436:	48 8d 45 b0          	lea    -0x50(%rbp),%rax
  40243a:	48 89 c7             	mov    %rax,%rdi
  40243d:	e8 9c ea ff ff       	callq  400ede <_ZNK9__gnu_cxx17__normal_iteratorIPiSt6vectorIiSaIiEEEdeEv>
  402442:	48 89 c3             	mov    %rax,%rbx
  402445:	48 8d 45 d0          	lea    -0x30(%rbp),%rax
  402449:	48 89 c7             	mov    %rax,%rdi
  40244c:	e8 8d ea ff ff       	callq  400ede <_ZNK9__gnu_cxx17__normal_iteratorIPiSt6vectorIiSaIiEEEdeEv>
  402451:	8b 00                	mov    (%rax),%eax
  402453:	89 03                	mov    %eax,(%rbx)
  402455:	48 8d 55 d0          	lea    -0x30(%rbp),%rdx
  402459:	48 8d 45 c0          	lea    -0x40(%rbp),%rax
  40245d:	48 89 d6             	mov    %rdx,%rsi
  402460:	48 89 c7             	mov    %rax,%rdi
  402463:	e8 51 f1 ff ff       	callq  4015b9 <_ZN9__gnu_cxxmiIPiSt6vectorIiSaIiEEEENS_17__normal_iteratorIT_T0_E15difference_typeERKS8_SB_>
  402468:	48 89 c6             	mov    %rax,%rsi
  40246b:	48 83 ec 08          	sub    $0x8,%rsp
  40246f:	8b 55 ec             	mov    -0x14(%rbp),%edx
  402472:	48 8b 45 d0          	mov    -0x30(%rbp),%rax
  402476:	0f b6 4d 10          	movzbl 0x10(%rbp),%ecx
  40247a:	51                   	push   %rcx
  40247b:	89 d1                	mov    %edx,%ecx
  40247d:	48 89 f2             	mov    %rsi,%rdx
  402480:	be 00 00 00 00       	mov    $0x0,%esi
  402485:	48 89 c7             	mov    %rax,%rdi
  402488:	e8 8f 01 00 00       	callq  40261c <_ZSt13__adjust_heapIN9__gnu_cxx17__normal_iteratorIPiSt6vectorIiSaIiEEEEliNS0_5__ops15_Iter_comp_iterISt7greaterIiEEEEvT_T0_SD_T1_T2_>
  40248d:	48 83 c4 10          	add    $0x10,%rsp
  402491:	48 8b 5d f8          	mov    -0x8(%rbp),%rbx
  402495:	c9                   	leaveq 
  402496:	c3                   	retq   
  402497:	90                   	nop

0000000000402498 <_ZN9__gnu_cxx17__normal_iteratorIPiSt6vectorIiSaIiEEEmmEv>:
  402498:	55                   	push   %rbp
  402499:	48 89 e5             	mov    %rsp,%rbp
  40249c:	48 89 7d f8          	mov    %rdi,-0x8(%rbp)
  4024a0:	48 8b 45 f8          	mov    -0x8(%rbp),%rax
  4024a4:	48 8b 00             	mov    (%rax),%rax
  4024a7:	48 8d 50 fc          	lea    -0x4(%rax),%rdx
  4024ab:	48 8b 45 f8          	mov    -0x8(%rbp),%rax
  4024af:	48 89 10             	mov    %rdx,(%rax)
  4024b2:	48 8b 45 f8          	mov    -0x8(%rbp),%rax
  4024b6:	5d                   	pop    %rbp
  4024b7:	c3                   	retq   

00000000004024b8 <_ZSt9iter_swapIN9__gnu_cxx17__normal_iteratorIPiSt6vectorIiSaIiEEEES6_EvT_T0_>:
  4024b8:	55                   	push   %rbp
  4024b9:	48 89 e5             	mov    %rsp,%rbp
  4024bc:	48 83 ec 20          	sub    $0x20,%rsp
  4024c0:	48 89 7d f0          	mov    %rdi,-0x10(%rbp)
  4024c4:	48 89 75 e0          	mov    %rsi,-0x20(%rbp)
  4024c8:	48 8b 55 e0          	mov    -0x20(%rbp),%rdx
  4024cc:	48 8b 45 f0          	mov    -0x10(%rbp),%rax
  4024d0:	48 89 d6             	mov    %rdx,%rsi
  4024d3:	48 89 c7             	mov    %rax,%rdi
  4024d6:	e8 0b 03 00 00       	callq  4027e6 <_ZNSt11__iter_swapILb1EE9iter_swapIN9__gnu_cxx17__normal_iteratorIPiSt6vectorIiSaIiEEEES8_EEvT_T0_>
  4024db:	c9                   	leaveq 
  4024dc:	c3                   	retq   
  4024dd:	90                   	nop

00000000004024de <_ZNKSt7greaterIiEclERKiS2_>:
  4024de:	55                   	push   %rbp
  4024df:	48 89 e5             	mov    %rsp,%rbp
  4024e2:	48 89 7d f8          	mov    %rdi,-0x8(%rbp)
  4024e6:	48 89 75 f0          	mov    %rsi,-0x10(%rbp)
  4024ea:	48 89 55 e8          	mov    %rdx,-0x18(%rbp)
  4024ee:	48 8b 45 f0          	mov    -0x10(%rbp),%rax
  4024f2:	8b 10                	mov    (%rax),%edx
  4024f4:	48 8b 45 e8          	mov    -0x18(%rbp),%rax
  4024f8:	8b 00                	mov    (%rax),%eax
  4024fa:	39 c2                	cmp    %eax,%edx
  4024fc:	0f 9f c0             	setg   %al
  4024ff:	5d                   	pop    %rbp
  402500:	c3                   	retq   

0000000000402501 <_ZSt12__miter_baseIN9__gnu_cxx17__normal_iteratorIPiSt6vectorIiSaIiEEEEENSt11_Miter_baseIT_E13iterator_typeES8_>:
  402501:	55                   	push   %rbp
  402502:	48 89 e5             	mov    %rsp,%rbp
  402505:	48 83 ec 10          	sub    $0x10,%rsp
  402509:	48 89 7d f0          	mov    %rdi,-0x10(%rbp)
  40250d:	48 8b 45 f0          	mov    -0x10(%rbp),%rax
  402511:	48 89 c7             	mov    %rax,%rdi
  402514:	e8 0b 03 00 00       	callq  402824 <_ZNSt10_Iter_baseIN9__gnu_cxx17__normal_iteratorIPiSt6vectorIiSaIiEEEELb0EE7_S_baseES6_>
  402519:	c9                   	leaveq 
  40251a:	c3                   	retq   

000000000040251b <_ZSt23__copy_move_backward_a2ILb0EN9__gnu_cxx17__normal_iteratorIPiSt6vectorIiSaIiEEEES6_ET1_T0_S8_S7_>:
  40251b:	55                   	push   %rbp
  40251c:	48 89 e5             	mov    %rsp,%rbp
  40251f:	41 54                	push   %r12
  402521:	53                   	push   %rbx
  402522:	48 83 ec 40          	sub    $0x40,%rsp
  402526:	48 89 7d d0          	mov    %rdi,-0x30(%rbp)
  40252a:	48 89 75 c0          	mov    %rsi,-0x40(%rbp)
  40252e:	48 89 55 b0          	mov    %rdx,-0x50(%rbp)
  402532:	48 8b 45 b0          	mov    -0x50(%rbp),%rax
  402536:	48 89 c7             	mov    %rax,%rdi
  402539:	e8 f4 02 00 00       	callq  402832 <_ZSt12__niter_baseIN9__gnu_cxx17__normal_iteratorIPiSt6vectorIiSaIiEEEEENSt11_Niter_baseIT_E13iterator_typeES8_>
  40253e:	49 89 c4             	mov    %rax,%r12
  402541:	48 8b 45 c0          	mov    -0x40(%rbp),%rax
  402545:	48 89 c7             	mov    %rax,%rdi
  402548:	e8 e5 02 00 00       	callq  402832 <_ZSt12__niter_baseIN9__gnu_cxx17__normal_iteratorIPiSt6vectorIiSaIiEEEEENSt11_Niter_baseIT_E13iterator_typeES8_>
  40254d:	48 89 c3             	mov    %rax,%rbx
  402550:	48 8b 45 d0          	mov    -0x30(%rbp),%rax
  402554:	48 89 c7             	mov    %rax,%rdi
  402557:	e8 d6 02 00 00       	callq  402832 <_ZSt12__niter_baseIN9__gnu_cxx17__normal_iteratorIPiSt6vectorIiSaIiEEEEENSt11_Niter_baseIT_E13iterator_typeES8_>
  40255c:	4c 89 e2             	mov    %r12,%rdx
  40255f:	48 89 de             	mov    %rbx,%rsi
  402562:	48 89 c7             	mov    %rax,%rdi
  402565:	e8 66 f7 ff ff       	callq  401cd0 <_ZSt22__copy_move_backward_aILb0EPiS0_ET1_T0_S2_S1_>
  40256a:	48 89 45 e8          	mov    %rax,-0x18(%rbp)
  40256e:	48 8d 55 e8          	lea    -0x18(%rbp),%rdx
  402572:	48 8d 45 e0          	lea    -0x20(%rbp),%rax
  402576:	48 89 d6             	mov    %rdx,%rsi
  402579:	48 89 c7             	mov    %rax,%rdi
  40257c:	e8 61 ed ff ff       	callq  4012e2 <_ZN9__gnu_cxx17__normal_iteratorIPiSt6vectorIiSaIiEEEC1ERKS1_>
  402581:	48 8b 45 e0          	mov    -0x20(%rbp),%rax
  402585:	48 83 c4 40          	add    $0x40,%rsp
  402589:	5b                   	pop    %rbx
  40258a:	41 5c                	pop    %r12
  40258c:	5d                   	pop    %rbp
  40258d:	c3                   	retq   

000000000040258e <_ZN9__gnu_cxx5__ops14_Val_comp_iterISt7greaterIiEEC1ES3_>:
  40258e:	55                   	push   %rbp
  40258f:	48 89 e5             	mov    %rsp,%rbp
  402592:	48 89 7d f8          	mov    %rdi,-0x8(%rbp)
  402596:	5d                   	pop    %rbp
  402597:	c3                   	retq   

0000000000402598 <_ZN9__gnu_cxx5__ops14_Val_comp_iterISt7greaterIiEEclIiNS_17__normal_iteratorIPiSt6vectorIiSaIiEEEEEEbRT_T0_>:
  402598:	55                   	push   %rbp
  402599:	48 89 e5             	mov    %rsp,%rbp
  40259c:	48 83 ec 20          	sub    $0x20,%rsp
  4025a0:	48 89 7d f8          	mov    %rdi,-0x8(%rbp)
  4025a4:	48 89 75 f0          	mov    %rsi,-0x10(%rbp)
  4025a8:	48 89 55 e0          	mov    %rdx,-0x20(%rbp)
  4025ac:	48 8d 45 e0          	lea    -0x20(%rbp),%rax
  4025b0:	48 89 c7             	mov    %rax,%rdi
  4025b3:	e8 26 e9 ff ff       	callq  400ede <_ZNK9__gnu_cxx17__normal_iteratorIPiSt6vectorIiSaIiEEEdeEv>
  4025b8:	48 89 c2             	mov    %rax,%rdx
  4025bb:	48 8b 45 f8          	mov    -0x8(%rbp),%rax
  4025bf:	48 8b 4d f0          	mov    -0x10(%rbp),%rcx
  4025c3:	48 89 ce             	mov    %rcx,%rsi
  4025c6:	48 89 c7             	mov    %rax,%rdi
  4025c9:	e8 10 ff ff ff       	callq  4024de <_ZNKSt7greaterIiEclERKiS2_>
  4025ce:	c9                   	leaveq 
  4025cf:	c3                   	retq   

00000000004025d0 <_ZSt4copyIPiS0_ET0_T_S2_S1_>:
  4025d0:	55                   	push   %rbp
  4025d1:	48 89 e5             	mov    %rsp,%rbp
  4025d4:	53                   	push   %rbx
  4025d5:	48 83 ec 28          	sub    $0x28,%rsp
  4025d9:	48 89 7d e8          	mov    %rdi,-0x18(%rbp)
  4025dd:	48 89 75 e0          	mov    %rsi,-0x20(%rbp)
  4025e1:	48 89 55 d8          	mov    %rdx,-0x28(%rbp)
  4025e5:	48 8b 45 e0          	mov    -0x20(%rbp),%rax
  4025e9:	48 89 c7             	mov    %rax,%rdi
  4025ec:	e8 70 f2 ff ff       	callq  401861 <_ZSt12__miter_baseIPiENSt11_Miter_baseIT_E13iterator_typeES2_>
  4025f1:	48 89 c3             	mov    %rax,%rbx
  4025f4:	48 8b 45 e8          	mov    -0x18(%rbp),%rax
  4025f8:	48 89 c7             	mov    %rax,%rdi
  4025fb:	e8 61 f2 ff ff       	callq  401861 <_ZSt12__miter_baseIPiENSt11_Miter_baseIT_E13iterator_typeES2_>
  402600:	48 89 c1             	mov    %rax,%rcx
  402603:	48 8b 45 d8          	mov    -0x28(%rbp),%rax
  402607:	48 89 c2             	mov    %rax,%rdx
  40260a:	48 89 de             	mov    %rbx,%rsi
  40260d:	48 89 cf             	mov    %rcx,%rdi
  402610:	e8 37 02 00 00       	callq  40284c <_ZSt14__copy_move_a2ILb0EPiS0_ET1_T0_S2_S1_>
  402615:	48 83 c4 28          	add    $0x28,%rsp
  402619:	5b                   	pop    %rbx
  40261a:	5d                   	pop    %rbp
  40261b:	c3                   	retq   

000000000040261c <_ZSt13__adjust_heapIN9__gnu_cxx17__normal_iteratorIPiSt6vectorIiSaIiEEEEliNS0_5__ops15_Iter_comp_iterISt7greaterIiEEEEvT_T0_SD_T1_T2_>:
  40261c:	55                   	push   %rbp
  40261d:	48 89 e5             	mov    %rsp,%rbp
  402620:	41 54                	push   %r12
  402622:	53                   	push   %rbx
  402623:	48 83 ec 70          	sub    $0x70,%rsp
  402627:	48 89 7d 90          	mov    %rdi,-0x70(%rbp)
  40262b:	48 89 75 98          	mov    %rsi,-0x68(%rbp)
  40262f:	48 89 55 88          	mov    %rdx,-0x78(%rbp)
  402633:	89 4d 84             	mov    %ecx,-0x7c(%rbp)
  402636:	48 8b 45 98          	mov    -0x68(%rbp),%rax
  40263a:	48 89 45 e0          	mov    %rax,-0x20(%rbp)
  40263e:	48 8b 45 98          	mov    -0x68(%rbp),%rax
  402642:	48 89 45 e8          	mov    %rax,-0x18(%rbp)
  402646:	e9 a9 00 00 00       	jmpq   4026f4 <_ZSt13__adjust_heapIN9__gnu_cxx17__normal_iteratorIPiSt6vectorIiSaIiEEEEliNS0_5__ops15_Iter_comp_iterISt7greaterIiEEEEvT_T0_SD_T1_T2_+0xd8>
  40264b:	48 8b 45 e8          	mov    -0x18(%rbp),%rax
  40264f:	48 83 c0 01          	add    $0x1,%rax
  402653:	48 01 c0             	add    %rax,%rax
  402656:	48 89 45 e8          	mov    %rax,-0x18(%rbp)
  40265a:	48 8b 45 e8          	mov    -0x18(%rbp),%rax
  40265e:	48 8d 50 ff          	lea    -0x1(%rax),%rdx
  402662:	48 8d 45 90          	lea    -0x70(%rbp),%rax
  402666:	48 89 d6             	mov    %rdx,%rsi
  402669:	48 89 c7             	mov    %rax,%rdi
  40266c:	e8 5f f4 ff ff       	callq  401ad0 <_ZNK9__gnu_cxx17__normal_iteratorIPiSt6vectorIiSaIiEEEplEl>
  402671:	48 89 c3             	mov    %rax,%rbx
  402674:	48 8b 55 e8          	mov    -0x18(%rbp),%rdx
  402678:	48 8d 45 90          	lea    -0x70(%rbp),%rax
  40267c:	48 89 d6             	mov    %rdx,%rsi
  40267f:	48 89 c7             	mov    %rax,%rdi
  402682:	e8 49 f4 ff ff       	callq  401ad0 <_ZNK9__gnu_cxx17__normal_iteratorIPiSt6vectorIiSaIiEEEplEl>
  402687:	48 89 da             	mov    %rbx,%rdx
  40268a:	48 89 c6             	mov    %rax,%rsi
  40268d:	48 8d 7d 10          	lea    0x10(%rbp),%rdi
  402691:	e8 6c fa ff ff       	callq  402102 <_ZN9__gnu_cxx5__ops15_Iter_comp_iterISt7greaterIiEEclINS_17__normal_iteratorIPiSt6vectorIiSaIiEEEESB_EEbT_T0_>
  402696:	84 c0                	test   %al,%al
  402698:	74 05                	je     40269f <_ZSt13__adjust_heapIN9__gnu_cxx17__normal_iteratorIPiSt6vectorIiSaIiEEEEliNS0_5__ops15_Iter_comp_iterISt7greaterIiEEEEvT_T0_SD_T1_T2_+0x83>
  40269a:	48 83 6d e8 01       	subq   $0x1,-0x18(%rbp)
  40269f:	48 8b 55 98          	mov    -0x68(%rbp),%rdx
  4026a3:	48 8d 45 90          	lea    -0x70(%rbp),%rax
  4026a7:	48 89 d6             	mov    %rdx,%rsi
  4026aa:	48 89 c7             	mov    %rax,%rdi
  4026ad:	e8 1e f4 ff ff       	callq  401ad0 <_ZNK9__gnu_cxx17__normal_iteratorIPiSt6vectorIiSaIiEEEplEl>
  4026b2:	48 89 45 a0          	mov    %rax,-0x60(%rbp)
  4026b6:	48 8d 45 a0          	lea    -0x60(%rbp),%rax
  4026ba:	48 89 c7             	mov    %rax,%rdi
  4026bd:	e8 1c e8 ff ff       	callq  400ede <_ZNK9__gnu_cxx17__normal_iteratorIPiSt6vectorIiSaIiEEEdeEv>
  4026c2:	48 89 c3             	mov    %rax,%rbx
  4026c5:	48 8b 55 e8          	mov    -0x18(%rbp),%rdx
  4026c9:	48 8d 45 90          	lea    -0x70(%rbp),%rax
  4026cd:	48 89 d6             	mov    %rdx,%rsi
  4026d0:	48 89 c7             	mov    %rax,%rdi
  4026d3:	e8 f8 f3 ff ff       	callq  401ad0 <_ZNK9__gnu_cxx17__normal_iteratorIPiSt6vectorIiSaIiEEEplEl>
  4026d8:	48 89 45 b0          	mov    %rax,-0x50(%rbp)
  4026dc:	48 8d 45 b0          	lea    -0x50(%rbp),%rax
  4026e0:	48 89 c7             	mov    %rax,%rdi
  4026e3:	e8 f6 e7 ff ff       	callq  400ede <_ZNK9__gnu_cxx17__normal_iteratorIPiSt6vectorIiSaIiEEEdeEv>
  4026e8:	8b 00                	mov    (%rax),%eax
  4026ea:	89 03                	mov    %eax,(%rbx)
  4026ec:	48 8b 45 e8          	mov    -0x18(%rbp),%rax
  4026f0:	48 89 45 98          	mov    %rax,-0x68(%rbp)
  4026f4:	48 8b 45 88          	mov    -0x78(%rbp),%rax
  4026f8:	48 83 e8 01          	sub    $0x1,%rax
  4026fc:	48 89 c2             	mov    %rax,%rdx
  4026ff:	48 c1 ea 3f          	shr    $0x3f,%rdx
  402703:	48 01 d0             	add    %rdx,%rax
  402706:	48 d1 f8             	sar    %rax
  402709:	48 3b 45 e8          	cmp    -0x18(%rbp),%rax
  40270d:	0f 8f 38 ff ff ff    	jg     40264b <_ZSt13__adjust_heapIN9__gnu_cxx17__normal_iteratorIPiSt6vectorIiSaIiEEEEliNS0_5__ops15_Iter_comp_iterISt7greaterIiEEEEvT_T0_SD_T1_T2_+0x2f>
  402713:	48 8b 45 88          	mov    -0x78(%rbp),%rax
  402717:	83 e0 01             	and    $0x1,%eax
  40271a:	48 85 c0             	test   %rax,%rax
  40271d:	0f 85 87 00 00 00    	jne    4027aa <_ZSt13__adjust_heapIN9__gnu_cxx17__normal_iteratorIPiSt6vectorIiSaIiEEEEliNS0_5__ops15_Iter_comp_iterISt7greaterIiEEEEvT_T0_SD_T1_T2_+0x18e>
  402723:	48 8b 45 88          	mov    -0x78(%rbp),%rax
  402727:	48 83 e8 02          	sub    $0x2,%rax
  40272b:	48 89 c2             	mov    %rax,%rdx
  40272e:	48 c1 ea 3f          	shr    $0x3f,%rdx
  402732:	48 01 d0             	add    %rdx,%rax
  402735:	48 d1 f8             	sar    %rax
  402738:	48 3b 45 e8          	cmp    -0x18(%rbp),%rax
  40273c:	75 6c                	jne    4027aa <_ZSt13__adjust_heapIN9__gnu_cxx17__normal_iteratorIPiSt6vectorIiSaIiEEEEliNS0_5__ops15_Iter_comp_iterISt7greaterIiEEEEvT_T0_SD_T1_T2_+0x18e>
  40273e:	48 8b 45 e8          	mov    -0x18(%rbp),%rax
  402742:	48 83 c0 01          	add    $0x1,%rax
  402746:	48 01 c0             	add    %rax,%rax
  402749:	48 89 45 e8          	mov    %rax,-0x18(%rbp)
  40274d:	48 8b 55 98          	mov    -0x68(%rbp),%rdx
  402751:	48 8d 45 90          	lea    -0x70(%rbp),%rax
  402755:	48 89 d6             	mov    %rdx,%rsi
  402758:	48 89 c7             	mov    %rax,%rdi
  40275b:	e8 70 f3 ff ff       	callq  401ad0 <_ZNK9__gnu_cxx17__normal_iteratorIPiSt6vectorIiSaIiEEEplEl>
  402760:	48 89 45 c0          	mov    %rax,-0x40(%rbp)
  402764:	48 8d 45 c0          	lea    -0x40(%rbp),%rax
  402768:	48 89 c7             	mov    %rax,%rdi
  40276b:	e8 6e e7 ff ff       	callq  400ede <_ZNK9__gnu_cxx17__normal_iteratorIPiSt6vectorIiSaIiEEEdeEv>
  402770:	48 89 c3             	mov    %rax,%rbx
  402773:	48 8b 45 e8          	mov    -0x18(%rbp),%rax
  402777:	48 8d 50 ff          	lea    -0x1(%rax),%rdx
  40277b:	48 8d 45 90          	lea    -0x70(%rbp),%rax
  40277f:	48 89 d6             	mov    %rdx,%rsi
  402782:	48 89 c7             	mov    %rax,%rdi
  402785:	e8 46 f3 ff ff       	callq  401ad0 <_ZNK9__gnu_cxx17__normal_iteratorIPiSt6vectorIiSaIiEEEplEl>
  40278a:	48 89 45 d0          	mov    %rax,-0x30(%rbp)
  40278e:	48 8d 45 d0          	lea    -0x30(%rbp),%rax
  402792:	48 89 c7             	mov    %rax,%rdi
  402795:	e8 44 e7 ff ff       	callq  400ede <_ZNK9__gnu_cxx17__normal_iteratorIPiSt6vectorIiSaIiEEEdeEv>
  40279a:	8b 00                	mov    (%rax),%eax
  40279c:	89 03                	mov    %eax,(%rbx)
  40279e:	48 8b 45 e8          	mov    -0x18(%rbp),%rax
  4027a2:	48 83 e8 01          	sub    $0x1,%rax
  4027a6:	48 89 45 98          	mov    %rax,-0x68(%rbp)
  4027aa:	48 83 ec 08          	sub    $0x8,%rsp
  4027ae:	0f b6 45 10          	movzbl 0x10(%rbp),%eax
  4027b2:	50                   	push   %rax
  4027b3:	e8 ec 00 00 00       	callq  4028a4 <_ZN9__gnu_cxx5__ops15__iter_comp_valISt7greaterIiEEENS0_14_Iter_comp_valIT_EENS0_15_Iter_comp_iterIS5_EE>
  4027b8:	48 83 c4 10          	add    $0x10,%rsp
  4027bc:	48 83 ec 08          	sub    $0x8,%rsp
  4027c0:	8b 4d 84             	mov    -0x7c(%rbp),%ecx
  4027c3:	48 8b 55 e0          	mov    -0x20(%rbp),%rdx
  4027c7:	48 8b 75 98          	mov    -0x68(%rbp),%rsi
  4027cb:	48 8b 45 90          	mov    -0x70(%rbp),%rax
  4027cf:	41 54                	push   %r12
  4027d1:	48 89 c7             	mov    %rax,%rdi
  4027d4:	e8 f1 00 00 00       	callq  4028ca <_ZSt11__push_heapIN9__gnu_cxx17__normal_iteratorIPiSt6vectorIiSaIiEEEEliNS0_5__ops14_Iter_comp_valISt7greaterIiEEEEvT_T0_SD_T1_T2_>
  4027d9:	48 83 c4 10          	add    $0x10,%rsp
  4027dd:	48 8d 65 f0          	lea    -0x10(%rbp),%rsp
  4027e1:	5b                   	pop    %rbx
  4027e2:	41 5c                	pop    %r12
  4027e4:	5d                   	pop    %rbp
  4027e5:	c3                   	retq   

00000000004027e6 <_ZNSt11__iter_swapILb1EE9iter_swapIN9__gnu_cxx17__normal_iteratorIPiSt6vectorIiSaIiEEEES8_EEvT_T0_>:
  4027e6:	55                   	push   %rbp
  4027e7:	48 89 e5             	mov    %rsp,%rbp
  4027ea:	53                   	push   %rbx
  4027eb:	48 83 ec 28          	sub    $0x28,%rsp
  4027ef:	48 89 7d e0          	mov    %rdi,-0x20(%rbp)
  4027f3:	48 89 75 d0          	mov    %rsi,-0x30(%rbp)
  4027f7:	48 8d 45 d0          	lea    -0x30(%rbp),%rax
  4027fb:	48 89 c7             	mov    %rax,%rdi
  4027fe:	e8 db e6 ff ff       	callq  400ede <_ZNK9__gnu_cxx17__normal_iteratorIPiSt6vectorIiSaIiEEEdeEv>
  402803:	48 89 c3             	mov    %rax,%rbx
  402806:	48 8d 45 e0          	lea    -0x20(%rbp),%rax
  40280a:	48 89 c7             	mov    %rax,%rdi
  40280d:	e8 cc e6 ff ff       	callq  400ede <_ZNK9__gnu_cxx17__normal_iteratorIPiSt6vectorIiSaIiEEEdeEv>
  402812:	48 89 de             	mov    %rbx,%rsi
  402815:	48 89 c7             	mov    %rax,%rdi
  402818:	e8 cb 01 00 00       	callq  4029e8 <_ZSt4swapIiEvRT_S1_>
  40281d:	48 83 c4 28          	add    $0x28,%rsp
  402821:	5b                   	pop    %rbx
  402822:	5d                   	pop    %rbp
  402823:	c3                   	retq   

0000000000402824 <_ZNSt10_Iter_baseIN9__gnu_cxx17__normal_iteratorIPiSt6vectorIiSaIiEEEELb0EE7_S_baseES6_>:
  402824:	55                   	push   %rbp
  402825:	48 89 e5             	mov    %rsp,%rbp
  402828:	48 89 7d f0          	mov    %rdi,-0x10(%rbp)
  40282c:	48 8b 45 f0          	mov    -0x10(%rbp),%rax
  402830:	5d                   	pop    %rbp
  402831:	c3                   	retq   

0000000000402832 <_ZSt12__niter_baseIN9__gnu_cxx17__normal_iteratorIPiSt6vectorIiSaIiEEEEENSt11_Niter_baseIT_E13iterator_typeES8_>:
  402832:	55                   	push   %rbp
  402833:	48 89 e5             	mov    %rsp,%rbp
  402836:	48 83 ec 10          	sub    $0x10,%rsp
  40283a:	48 89 7d f0          	mov    %rdi,-0x10(%rbp)
  40283e:	48 8b 45 f0          	mov    -0x10(%rbp),%rax
  402842:	48 89 c7             	mov    %rax,%rdi
  402845:	e8 ca 01 00 00       	callq  402a14 <_ZNSt10_Iter_baseIN9__gnu_cxx17__normal_iteratorIPiSt6vectorIiSaIiEEEELb1EE7_S_baseES6_>
  40284a:	c9                   	leaveq 
  40284b:	c3                   	retq   

000000000040284c <_ZSt14__copy_move_a2ILb0EPiS0_ET1_T0_S2_S1_>:
  40284c:	55                   	push   %rbp
  40284d:	48 89 e5             	mov    %rsp,%rbp
  402850:	41 54                	push   %r12
  402852:	53                   	push   %rbx
  402853:	48 83 ec 20          	sub    $0x20,%rsp
  402857:	48 89 7d e8          	mov    %rdi,-0x18(%rbp)
  40285b:	48 89 75 e0          	mov    %rsi,-0x20(%rbp)
  40285f:	48 89 55 d8          	mov    %rdx,-0x28(%rbp)
  402863:	48 8b 45 d8          	mov    -0x28(%rbp),%rax
  402867:	48 89 c7             	mov    %rax,%rdi
  40286a:	e8 47 f4 ff ff       	callq  401cb6 <_ZSt12__niter_baseIPiENSt11_Niter_baseIT_E13iterator_typeES2_>
  40286f:	49 89 c4             	mov    %rax,%r12
  402872:	48 8b 45 e0          	mov    -0x20(%rbp),%rax
  402876:	48 89 c7             	mov    %rax,%rdi
  402879:	e8 38 f4 ff ff       	callq  401cb6 <_ZSt12__niter_baseIPiENSt11_Niter_baseIT_E13iterator_typeES2_>
  40287e:	48 89 c3             	mov    %rax,%rbx
  402881:	48 8b 45 e8          	mov    -0x18(%rbp),%rax
  402885:	48 89 c7             	mov    %rax,%rdi
  402888:	e8 29 f4 ff ff       	callq  401cb6 <_ZSt12__niter_baseIPiENSt11_Niter_baseIT_E13iterator_typeES2_>
  40288d:	4c 89 e2             	mov    %r12,%rdx
  402890:	48 89 de             	mov    %rbx,%rsi
  402893:	48 89 c7             	mov    %rax,%rdi
  402896:	e8 96 01 00 00       	callq  402a31 <_ZSt13__copy_move_aILb0EPiS0_ET1_T0_S2_S1_>
  40289b:	48 83 c4 20          	add    $0x20,%rsp
  40289f:	5b                   	pop    %rbx
  4028a0:	41 5c                	pop    %r12
  4028a2:	5d                   	pop    %rbp
  4028a3:	c3                   	retq   

00000000004028a4 <_ZN9__gnu_cxx5__ops15__iter_comp_valISt7greaterIiEEENS0_14_Iter_comp_valIT_EENS0_15_Iter_comp_iterIS5_EE>:
  4028a4:	55                   	push   %rbp
  4028a5:	48 89 e5             	mov    %rsp,%rbp
  4028a8:	53                   	push   %rbx
  4028a9:	48 83 ec 18          	sub    $0x18,%rsp
  4028ad:	48 83 ec 08          	sub    $0x8,%rsp
  4028b1:	48 8d 45 ef          	lea    -0x11(%rbp),%rax
  4028b5:	52                   	push   %rdx
  4028b6:	48 89 c7             	mov    %rax,%rdi
  4028b9:	e8 a4 01 00 00       	callq  402a62 <_ZN9__gnu_cxx5__ops14_Iter_comp_valISt7greaterIiEEC1ES3_>
  4028be:	48 83 c4 10          	add    $0x10,%rsp
  4028c2:	89 d8                	mov    %ebx,%eax
  4028c4:	48 8b 5d f8          	mov    -0x8(%rbp),%rbx
  4028c8:	c9                   	leaveq 
  4028c9:	c3                   	retq   

00000000004028ca <_ZSt11__push_heapIN9__gnu_cxx17__normal_iteratorIPiSt6vectorIiSaIiEEEEliNS0_5__ops14_Iter_comp_valISt7greaterIiEEEEvT_T0_SD_T1_T2_>:
  4028ca:	55                   	push   %rbp
  4028cb:	48 89 e5             	mov    %rsp,%rbp
  4028ce:	53                   	push   %rbx
  4028cf:	48 83 ec 58          	sub    $0x58,%rsp
  4028d3:	48 89 7d b0          	mov    %rdi,-0x50(%rbp)
  4028d7:	48 89 75 b8          	mov    %rsi,-0x48(%rbp)
  4028db:	48 89 55 a8          	mov    %rdx,-0x58(%rbp)
  4028df:	89 4d a4             	mov    %ecx,-0x5c(%rbp)
  4028e2:	48 8b 45 b8          	mov    -0x48(%rbp),%rax
  4028e6:	48 83 e8 01          	sub    $0x1,%rax
  4028ea:	48 89 c2             	mov    %rax,%rdx
  4028ed:	48 c1 ea 3f          	shr    $0x3f,%rdx
  4028f1:	48 01 d0             	add    %rdx,%rax
  4028f4:	48 d1 f8             	sar    %rax
  4028f7:	48 89 45 e8          	mov    %rax,-0x18(%rbp)
  4028fb:	eb 6e                	jmp    40296b <_ZSt11__push_heapIN9__gnu_cxx17__normal_iteratorIPiSt6vectorIiSaIiEEEEliNS0_5__ops14_Iter_comp_valISt7greaterIiEEEEvT_T0_SD_T1_T2_+0xa1>
  4028fd:	48 8b 55 b8          	mov    -0x48(%rbp),%rdx
  402901:	48 8d 45 b0          	lea    -0x50(%rbp),%rax
  402905:	48 89 d6             	mov    %rdx,%rsi
  402908:	48 89 c7             	mov    %rax,%rdi
  40290b:	e8 c0 f1 ff ff       	callq  401ad0 <_ZNK9__gnu_cxx17__normal_iteratorIPiSt6vectorIiSaIiEEEplEl>
  402910:	48 89 45 c0          	mov    %rax,-0x40(%rbp)
  402914:	48 8d 45 c0          	lea    -0x40(%rbp),%rax
  402918:	48 89 c7             	mov    %rax,%rdi
  40291b:	e8 be e5 ff ff       	callq  400ede <_ZNK9__gnu_cxx17__normal_iteratorIPiSt6vectorIiSaIiEEEdeEv>
  402920:	48 89 c3             	mov    %rax,%rbx
  402923:	48 8b 55 e8          	mov    -0x18(%rbp),%rdx
  402927:	48 8d 45 b0          	lea    -0x50(%rbp),%rax
  40292b:	48 89 d6             	mov    %rdx,%rsi
  40292e:	48 89 c7             	mov    %rax,%rdi
  402931:	e8 9a f1 ff ff       	callq  401ad0 <_ZNK9__gnu_cxx17__normal_iteratorIPiSt6vectorIiSaIiEEEplEl>
  402936:	48 89 45 d0          	mov    %rax,-0x30(%rbp)
  40293a:	48 8d 45 d0          	lea    -0x30(%rbp),%rax
  40293e:	48 89 c7             	mov    %rax,%rdi
  402941:	e8 98 e5 ff ff       	callq  400ede <_ZNK9__gnu_cxx17__normal_iteratorIPiSt6vectorIiSaIiEEEdeEv>
  402946:	8b 00                	mov    (%rax),%eax
  402948:	89 03                	mov    %eax,(%rbx)
  40294a:	48 8b 45 e8          	mov    -0x18(%rbp),%rax
  40294e:	48 89 45 b8          	mov    %rax,-0x48(%rbp)
  402952:	48 8b 45 b8          	mov    -0x48(%rbp),%rax
  402956:	48 83 e8 01          	sub    $0x1,%rax
  40295a:	48 89 c2             	mov    %rax,%rdx
  40295d:	48 c1 ea 3f          	shr    $0x3f,%rdx
  402961:	48 01 d0             	add    %rdx,%rax
  402964:	48 d1 f8             	sar    %rax
  402967:	48 89 45 e8          	mov    %rax,-0x18(%rbp)
  40296b:	48 8b 45 b8          	mov    -0x48(%rbp),%rax
  40296f:	48 3b 45 a8          	cmp    -0x58(%rbp),%rax
  402973:	7e 34                	jle    4029a9 <_ZSt11__push_heapIN9__gnu_cxx17__normal_iteratorIPiSt6vectorIiSaIiEEEEliNS0_5__ops14_Iter_comp_valISt7greaterIiEEEEvT_T0_SD_T1_T2_+0xdf>
  402975:	48 8b 55 e8          	mov    -0x18(%rbp),%rdx
  402979:	48 8d 45 b0          	lea    -0x50(%rbp),%rax
  40297d:	48 89 d6             	mov    %rdx,%rsi
  402980:	48 89 c7             	mov    %rax,%rdi
  402983:	e8 48 f1 ff ff       	callq  401ad0 <_ZNK9__gnu_cxx17__normal_iteratorIPiSt6vectorIiSaIiEEEplEl>
  402988:	48 89 c1             	mov    %rax,%rcx
  40298b:	48 8d 45 a4          	lea    -0x5c(%rbp),%rax
  40298f:	48 89 c2             	mov    %rax,%rdx
  402992:	48 89 ce             	mov    %rcx,%rsi
  402995:	48 8d 7d 10          	lea    0x10(%rbp),%rdi
  402999:	e8 ce 00 00 00       	callq  402a6c <_ZN9__gnu_cxx5__ops14_Iter_comp_valISt7greaterIiEEclINS_17__normal_iteratorIPiSt6vectorIiSaIiEEEEiEEbT_RT0_>
  40299e:	84 c0                	test   %al,%al
  4029a0:	74 07                	je     4029a9 <_ZSt11__push_heapIN9__gnu_cxx17__normal_iteratorIPiSt6vectorIiSaIiEEEEliNS0_5__ops14_Iter_comp_valISt7greaterIiEEEEvT_T0_SD_T1_T2_+0xdf>
  4029a2:	b8 01 00 00 00       	mov    $0x1,%eax
  4029a7:	eb 05                	jmp    4029ae <_ZSt11__push_heapIN9__gnu_cxx17__normal_iteratorIPiSt6vectorIiSaIiEEEEliNS0_5__ops14_Iter_comp_valISt7greaterIiEEEEvT_T0_SD_T1_T2_+0xe4>
  4029a9:	b8 00 00 00 00       	mov    $0x0,%eax
  4029ae:	84 c0                	test   %al,%al
  4029b0:	0f 85 47 ff ff ff    	jne    4028fd <_ZSt11__push_heapIN9__gnu_cxx17__normal_iteratorIPiSt6vectorIiSaIiEEEEliNS0_5__ops14_Iter_comp_valISt7greaterIiEEEEvT_T0_SD_T1_T2_+0x33>
  4029b6:	48 8b 55 b8          	mov    -0x48(%rbp),%rdx
  4029ba:	48 8d 45 b0          	lea    -0x50(%rbp),%rax
  4029be:	48 89 d6             	mov    %rdx,%rsi
  4029c1:	48 89 c7             	mov    %rax,%rdi
  4029c4:	e8 07 f1 ff ff       	callq  401ad0 <_ZNK9__gnu_cxx17__normal_iteratorIPiSt6vectorIiSaIiEEEplEl>
  4029c9:	48 89 45 e0          	mov    %rax,-0x20(%rbp)
  4029cd:	48 8d 45 e0          	lea    -0x20(%rbp),%rax
  4029d1:	48 89 c7             	mov    %rax,%rdi
  4029d4:	e8 05 e5 ff ff       	callq  400ede <_ZNK9__gnu_cxx17__normal_iteratorIPiSt6vectorIiSaIiEEEdeEv>
  4029d9:	48 89 c2             	mov    %rax,%rdx
  4029dc:	8b 45 a4             	mov    -0x5c(%rbp),%eax
  4029df:	89 02                	mov    %eax,(%rdx)
  4029e1:	48 83 c4 58          	add    $0x58,%rsp
  4029e5:	5b                   	pop    %rbx
  4029e6:	5d                   	pop    %rbp
  4029e7:	c3                   	retq   

00000000004029e8 <_ZSt4swapIiEvRT_S1_>:
  4029e8:	55                   	push   %rbp
  4029e9:	48 89 e5             	mov    %rsp,%rbp
  4029ec:	48 89 7d e8          	mov    %rdi,-0x18(%rbp)
  4029f0:	48 89 75 e0          	mov    %rsi,-0x20(%rbp)
  4029f4:	48 8b 45 e8          	mov    -0x18(%rbp),%rax
  4029f8:	8b 00                	mov    (%rax),%eax
  4029fa:	89 45 fc             	mov    %eax,-0x4(%rbp)
  4029fd:	48 8b 45 e0          	mov    -0x20(%rbp),%rax
  402a01:	8b 10                	mov    (%rax),%edx
  402a03:	48 8b 45 e8          	mov    -0x18(%rbp),%rax
  402a07:	89 10                	mov    %edx,(%rax)
  402a09:	48 8b 45 e0          	mov    -0x20(%rbp),%rax
  402a0d:	8b 55 fc             	mov    -0x4(%rbp),%edx
  402a10:	89 10                	mov    %edx,(%rax)
  402a12:	5d                   	pop    %rbp
  402a13:	c3                   	retq   

0000000000402a14 <_ZNSt10_Iter_baseIN9__gnu_cxx17__normal_iteratorIPiSt6vectorIiSaIiEEEELb1EE7_S_baseES6_>:
  402a14:	55                   	push   %rbp
  402a15:	48 89 e5             	mov    %rsp,%rbp
  402a18:	48 83 ec 10          	sub    $0x10,%rsp
  402a1c:	48 89 7d f0          	mov    %rdi,-0x10(%rbp)
  402a20:	48 8d 45 f0          	lea    -0x10(%rbp),%rax
  402a24:	48 89 c7             	mov    %rax,%rdi
  402a27:	e8 84 e9 ff ff       	callq  4013b0 <_ZNK9__gnu_cxx17__normal_iteratorIPiSt6vectorIiSaIiEEE4baseEv>
  402a2c:	48 8b 00             	mov    (%rax),%rax
  402a2f:	c9                   	leaveq 
  402a30:	c3                   	retq   

0000000000402a31 <_ZSt13__copy_move_aILb0EPiS0_ET1_T0_S2_S1_>:
  402a31:	55                   	push   %rbp
  402a32:	48 89 e5             	mov    %rsp,%rbp
  402a35:	48 83 ec 30          	sub    $0x30,%rsp
  402a39:	48 89 7d e8          	mov    %rdi,-0x18(%rbp)
  402a3d:	48 89 75 e0          	mov    %rsi,-0x20(%rbp)
  402a41:	48 89 55 d8          	mov    %rdx,-0x28(%rbp)
  402a45:	c6 45 ff 01          	movb   $0x1,-0x1(%rbp)
  402a49:	48 8b 55 d8          	mov    -0x28(%rbp),%rdx
  402a4d:	48 8b 4d e0          	mov    -0x20(%rbp),%rcx
  402a51:	48 8b 45 e8          	mov    -0x18(%rbp),%rax
  402a55:	48 89 ce             	mov    %rcx,%rsi
  402a58:	48 89 c7             	mov    %rax,%rdi
  402a5b:	e8 44 00 00 00       	callq  402aa4 <_ZNSt11__copy_moveILb0ELb1ESt26random_access_iterator_tagE8__copy_mIiEEPT_PKS3_S6_S4_>
  402a60:	c9                   	leaveq 
  402a61:	c3                   	retq   

0000000000402a62 <_ZN9__gnu_cxx5__ops14_Iter_comp_valISt7greaterIiEEC1ES3_>:
  402a62:	55                   	push   %rbp
  402a63:	48 89 e5             	mov    %rsp,%rbp
  402a66:	48 89 7d f8          	mov    %rdi,-0x8(%rbp)
  402a6a:	5d                   	pop    %rbp
  402a6b:	c3                   	retq   

0000000000402a6c <_ZN9__gnu_cxx5__ops14_Iter_comp_valISt7greaterIiEEclINS_17__normal_iteratorIPiSt6vectorIiSaIiEEEEiEEbT_RT0_>:
  402a6c:	55                   	push   %rbp
  402a6d:	48 89 e5             	mov    %rsp,%rbp
  402a70:	48 83 ec 20          	sub    $0x20,%rsp
  402a74:	48 89 7d f8          	mov    %rdi,-0x8(%rbp)
  402a78:	48 89 75 f0          	mov    %rsi,-0x10(%rbp)
  402a7c:	48 89 55 e8          	mov    %rdx,-0x18(%rbp)
  402a80:	48 8d 45 f0          	lea    -0x10(%rbp),%rax
  402a84:	48 89 c7             	mov    %rax,%rdi
  402a87:	e8 52 e4 ff ff       	callq  400ede <_ZNK9__gnu_cxx17__normal_iteratorIPiSt6vectorIiSaIiEEEdeEv>
  402a8c:	48 89 c1             	mov    %rax,%rcx
  402a8f:	48 8b 45 f8          	mov    -0x8(%rbp),%rax
  402a93:	48 8b 55 e8          	mov    -0x18(%rbp),%rdx
  402a97:	48 89 ce             	mov    %rcx,%rsi
  402a9a:	48 89 c7             	mov    %rax,%rdi
  402a9d:	e8 3c fa ff ff       	callq  4024de <_ZNKSt7greaterIiEclERKiS2_>
  402aa2:	c9                   	leaveq 
  402aa3:	c3                   	retq   

0000000000402aa4 <_ZNSt11__copy_moveILb0ELb1ESt26random_access_iterator_tagE8__copy_mIiEEPT_PKS3_S6_S4_>:
  402aa4:	55                   	push   %rbp
  402aa5:	48 89 e5             	mov    %rsp,%rbp
  402aa8:	48 83 ec 30          	sub    $0x30,%rsp
  402aac:	48 89 7d e8          	mov    %rdi,-0x18(%rbp)
  402ab0:	48 89 75 e0          	mov    %rsi,-0x20(%rbp)
  402ab4:	48 89 55 d8          	mov    %rdx,-0x28(%rbp)
  402ab8:	48 8b 55 e0          	mov    -0x20(%rbp),%rdx
  402abc:	48 8b 45 e8          	mov    -0x18(%rbp),%rax
  402ac0:	48 29 c2             	sub    %rax,%rdx
  402ac3:	48 89 d0             	mov    %rdx,%rax
  402ac6:	48 c1 f8 02          	sar    $0x2,%rax
  402aca:	48 89 45 f8          	mov    %rax,-0x8(%rbp)
  402ace:	48 83 7d f8 00       	cmpq   $0x0,-0x8(%rbp)
  402ad3:	74 1f                	je     402af4 <_ZNSt11__copy_moveILb0ELb1ESt26random_access_iterator_tagE8__copy_mIiEEPT_PKS3_S6_S4_+0x50>
  402ad5:	48 8b 45 f8          	mov    -0x8(%rbp),%rax
  402ad9:	48 8d 14 85 00 00 00 	lea    0x0(,%rax,4),%rdx
  402ae0:	00 
  402ae1:	48 8b 4d e8          	mov    -0x18(%rbp),%rcx
  402ae5:	48 8b 45 d8          	mov    -0x28(%rbp),%rax
  402ae9:	48 89 ce             	mov    %rcx,%rsi
  402aec:	48 89 c7             	mov    %rax,%rdi
  402aef:	e8 7c dd ff ff       	callq  400870 <memmove@plt>
  402af4:	48 8b 45 f8          	mov    -0x8(%rbp),%rax
  402af8:	48 8d 14 85 00 00 00 	lea    0x0(,%rax,4),%rdx
  402aff:	00 
  402b00:	48 8b 45 d8          	mov    -0x28(%rbp),%rax
  402b04:	48 01 d0             	add    %rdx,%rax
  402b07:	c9                   	leaveq 
  402b08:	c3                   	retq   
  402b09:	90                   	nop
  402b0a:	90                   	nop
  402b0b:	90                   	nop
  402b0c:	90                   	nop
  402b0d:	90                   	nop
  402b0e:	90                   	nop
  402b0f:	90                   	nop

0000000000402b10 <__libc_csu_fini>:
  402b10:	f3 c3                	repz retq 
  402b12:	66 66 66 66 66 2e 0f 	data32 data32 data32 data32 nopw %cs:0x0(%rax,%rax,1)
  402b19:	1f 84 00 00 00 00 00 

0000000000402b20 <__libc_csu_init>:
  402b20:	48 89 6c 24 d8       	mov    %rbp,-0x28(%rsp)
  402b25:	4c 89 64 24 e0       	mov    %r12,-0x20(%rsp)
  402b2a:	48 8d 2d cf 14 20 00 	lea    0x2014cf(%rip),%rbp        # 604000 <__CTOR_LIST__>
  402b31:	4c 8d 25 c8 14 20 00 	lea    0x2014c8(%rip),%r12        # 604000 <__CTOR_LIST__>
  402b38:	4c 89 6c 24 e8       	mov    %r13,-0x18(%rsp)
  402b3d:	4c 89 74 24 f0       	mov    %r14,-0x10(%rsp)
  402b42:	4c 89 7c 24 f8       	mov    %r15,-0x8(%rsp)
  402b47:	48 89 5c 24 d0       	mov    %rbx,-0x30(%rsp)
  402b4c:	48 83 ec 38          	sub    $0x38,%rsp
  402b50:	4c 29 e5             	sub    %r12,%rbp
  402b53:	41 89 fd             	mov    %edi,%r13d
  402b56:	49 89 f6             	mov    %rsi,%r14
  402b59:	48 c1 fd 03          	sar    $0x3,%rbp
  402b5d:	49 89 d7             	mov    %rdx,%r15
  402b60:	e8 83 dc ff ff       	callq  4007e8 <_init>
  402b65:	48 85 ed             	test   %rbp,%rbp
  402b68:	74 1c                	je     402b86 <__libc_csu_init+0x66>
  402b6a:	31 db                	xor    %ebx,%ebx
  402b6c:	0f 1f 40 00          	nopl   0x0(%rax)
  402b70:	4c 89 fa             	mov    %r15,%rdx
  402b73:	4c 89 f6             	mov    %r14,%rsi
  402b76:	44 89 ef             	mov    %r13d,%edi
  402b79:	41 ff 14 dc          	callq  *(%r12,%rbx,8)
  402b7d:	48 83 c3 01          	add    $0x1,%rbx
  402b81:	48 39 eb             	cmp    %rbp,%rbx
  402b84:	72 ea                	jb     402b70 <__libc_csu_init+0x50>
  402b86:	48 8b 5c 24 08       	mov    0x8(%rsp),%rbx
  402b8b:	48 8b 6c 24 10       	mov    0x10(%rsp),%rbp
  402b90:	4c 8b 64 24 18       	mov    0x18(%rsp),%r12
  402b95:	4c 8b 6c 24 20       	mov    0x20(%rsp),%r13
  402b9a:	4c 8b 74 24 28       	mov    0x28(%rsp),%r14
  402b9f:	4c 8b 7c 24 30       	mov    0x30(%rsp),%r15
  402ba4:	48 83 c4 38          	add    $0x38,%rsp
  402ba8:	c3                   	retq   
  402ba9:	90                   	nop
  402baa:	90                   	nop
  402bab:	90                   	nop
  402bac:	90                   	nop
  402bad:	90                   	nop
  402bae:	90                   	nop
  402baf:	90                   	nop

0000000000402bb0 <__do_global_ctors_aux>:
  402bb0:	55                   	push   %rbp
  402bb1:	48 89 e5             	mov    %rsp,%rbp
  402bb4:	53                   	push   %rbx
  402bb5:	bb 00 40 60 00       	mov    $0x604000,%ebx
  402bba:	48 83 ec 08          	sub    $0x8,%rsp
  402bbe:	48 8b 05 3b 14 20 00 	mov    0x20143b(%rip),%rax        # 604000 <__CTOR_LIST__>
  402bc5:	48 83 f8 ff          	cmp    $0xffffffffffffffff,%rax
  402bc9:	74 14                	je     402bdf <__do_global_ctors_aux+0x2f>
  402bcb:	0f 1f 44 00 00       	nopl   0x0(%rax,%rax,1)
  402bd0:	48 83 eb 08          	sub    $0x8,%rbx
  402bd4:	ff d0                	callq  *%rax
  402bd6:	48 8b 03             	mov    (%rbx),%rax
  402bd9:	48 83 f8 ff          	cmp    $0xffffffffffffffff,%rax
  402bdd:	75 f1                	jne    402bd0 <__do_global_ctors_aux+0x20>
  402bdf:	48 83 c4 08          	add    $0x8,%rsp
  402be3:	5b                   	pop    %rbx
  402be4:	5d                   	pop    %rbp
  402be5:	c3                   	retq   
  402be6:	90                   	nop
  402be7:	90                   	nop

Disassembly of section .fini:

0000000000402be8 <_fini>:
  402be8:	48 83 ec 08          	sub    $0x8,%rsp
  402bec:	e8 bf dd ff ff       	callq  4009b0 <__do_global_dtors_aux>
  402bf1:	48 83 c4 08          	add    $0x8,%rsp
  402bf5:	c3                   	retq   
